
LPC1768/rosserial_mbed_Control.elf:     file format elf32-littlearm
architecture: arm, flags 0x00000112:
EXEC_P, HAS_SYMS, D_PAGED
start address 0x0000440d


Disassembly of section .text:

00000000 <__isr_vector>:
       0:	10008000 	.word	0x10008000
       4:	0000440d 	.word	0x0000440d
       8:	0000443d 	.word	0x0000443d
       c:	0000443f 	.word	0x0000443f
      10:	00004441 	.word	0x00004441
      14:	00004443 	.word	0x00004443
      18:	00004445 	.word	0x00004445
	...
      2c:	00004341 	.word	0x00004341
      30:	00004449 	.word	0x00004449
      34:	00000000 	.word	0x00000000
      38:	000043ab 	.word	0x000043ab
      3c:	000043e1 	.word	0x000043e1
      40:	0000444f 	.word	0x0000444f
      44:	0000444f 	.word	0x0000444f
      48:	0000444f 	.word	0x0000444f
      4c:	0000444f 	.word	0x0000444f
      50:	0000444f 	.word	0x0000444f
      54:	0000444f 	.word	0x0000444f
      58:	0000444f 	.word	0x0000444f
      5c:	0000444f 	.word	0x0000444f
      60:	0000444f 	.word	0x0000444f
      64:	0000444f 	.word	0x0000444f
      68:	0000444f 	.word	0x0000444f
      6c:	0000444f 	.word	0x0000444f
      70:	0000444f 	.word	0x0000444f
      74:	0000444f 	.word	0x0000444f
      78:	0000444f 	.word	0x0000444f
      7c:	0000444f 	.word	0x0000444f
      80:	0000444f 	.word	0x0000444f
      84:	0000444f 	.word	0x0000444f
      88:	0000444f 	.word	0x0000444f
      8c:	0000444f 	.word	0x0000444f
      90:	0000444f 	.word	0x0000444f
      94:	0000444f 	.word	0x0000444f
      98:	0000444f 	.word	0x0000444f
      9c:	0000444f 	.word	0x0000444f
      a0:	0000444f 	.word	0x0000444f
      a4:	0000444f 	.word	0x0000444f
      a8:	0000444f 	.word	0x0000444f
      ac:	0000444f 	.word	0x0000444f
      b0:	0000444f 	.word	0x0000444f
      b4:	0000444f 	.word	0x0000444f
      b8:	0000444f 	.word	0x0000444f
      bc:	0000444f 	.word	0x0000444f
      c0:	0000444f 	.word	0x0000444f
      c4:	0000444f 	.word	0x0000444f
      c8:	0000444f 	.word	0x0000444f

000000cc <__do_global_dtors_aux>:
      cc:	b510      	push	{r4, lr}
      ce:	4c05      	ldr	r4, [pc, #20]	; (e4 <__do_global_dtors_aux+0x18>)
      d0:	7823      	ldrb	r3, [r4, #0]
      d2:	b933      	cbnz	r3, e2 <__do_global_dtors_aux+0x16>
      d4:	4b04      	ldr	r3, [pc, #16]	; (e8 <__do_global_dtors_aux+0x1c>)
      d6:	b113      	cbz	r3, de <__do_global_dtors_aux+0x12>
      d8:	4804      	ldr	r0, [pc, #16]	; (ec <__do_global_dtors_aux+0x20>)
      da:	f3af 8000 	nop.w
      de:	2301      	movs	r3, #1
      e0:	7023      	strb	r3, [r4, #0]
      e2:	bd10      	pop	{r4, pc}
      e4:	100002f0 	.word	0x100002f0
      e8:	00000000 	.word	0x00000000
      ec:	0000788c 	.word	0x0000788c

000000f0 <frame_dummy>:
      f0:	4b0c      	ldr	r3, [pc, #48]	; (124 <frame_dummy+0x34>)
      f2:	b143      	cbz	r3, 106 <frame_dummy+0x16>
      f4:	480c      	ldr	r0, [pc, #48]	; (128 <frame_dummy+0x38>)
      f6:	b510      	push	{r4, lr}
      f8:	490c      	ldr	r1, [pc, #48]	; (12c <frame_dummy+0x3c>)
      fa:	f3af 8000 	nop.w
      fe:	480c      	ldr	r0, [pc, #48]	; (130 <frame_dummy+0x40>)
     100:	6803      	ldr	r3, [r0, #0]
     102:	b923      	cbnz	r3, 10e <frame_dummy+0x1e>
     104:	bd10      	pop	{r4, pc}
     106:	480a      	ldr	r0, [pc, #40]	; (130 <frame_dummy+0x40>)
     108:	6803      	ldr	r3, [r0, #0]
     10a:	b933      	cbnz	r3, 11a <frame_dummy+0x2a>
     10c:	4770      	bx	lr
     10e:	4b09      	ldr	r3, [pc, #36]	; (134 <frame_dummy+0x44>)
     110:	2b00      	cmp	r3, #0
     112:	d0f7      	beq.n	104 <frame_dummy+0x14>
     114:	e8bd 4010 	ldmia.w	sp!, {r4, lr}
     118:	4718      	bx	r3
     11a:	4b06      	ldr	r3, [pc, #24]	; (134 <frame_dummy+0x44>)
     11c:	2b00      	cmp	r3, #0
     11e:	d0f5      	beq.n	10c <frame_dummy+0x1c>
     120:	4718      	bx	r3
     122:	bf00      	nop
     124:	00000000 	.word	0x00000000
     128:	0000788c 	.word	0x0000788c
     12c:	100002f4 	.word	0x100002f4
     130:	100002ec 	.word	0x100002ec
     134:	00000000 	.word	0x00000000

00000138 <mbed::AnalogIn::~AnalogIn()>:
     138:	4770      	bx	lr
	...

0000013c <pulDown()>:
     13c:	4b02      	ldr	r3, [pc, #8]	; (148 <pulDown()+0xc>)
     13e:	691a      	ldr	r2, [r3, #16]
     140:	685b      	ldr	r3, [r3, #4]
     142:	6013      	str	r3, [r2, #0]
     144:	4770      	bx	lr
     146:	bf00      	nop
     148:	10000354 	.word	0x10000354

0000014c <void mbed::Callback<void ()>::function_call<void (*)()>(void const*)>:
     14c:	6803      	ldr	r3, [r0, #0]
     14e:	4718      	bx	r3

00000150 <void mbed::Callback<void ()>::function_move<void (*)()>(void*, void const*)>:
     150:	b108      	cbz	r0, 156 <void mbed::Callback<void ()>::function_move<void (*)()>(void*, void const*)+0x6>
     152:	680b      	ldr	r3, [r1, #0]
     154:	6003      	str	r3, [r0, #0]
     156:	4770      	bx	lr

00000158 <void mbed::Callback<void ()>::function_dtor<void (*)()>(void*)>:
     158:	4770      	bx	lr

0000015a <mbed::AnalogOut::lock()>:
     15a:	f04f 31ff 	mov.w	r1, #4294967295	; 0xffffffff
     15e:	3008      	adds	r0, #8
     160:	f004 b8b2 	b.w	42c8 <rtos::Mutex::lock(unsigned long)>

00000164 <mbed::AnalogIn::lock()>:
     164:	b570      	push	{r4, r5, r6, lr}
     166:	4c0d      	ldr	r4, [pc, #52]	; (19c <mbed::AnalogIn::lock()+0x38>)
     168:	6823      	ldr	r3, [r4, #0]
     16a:	b983      	cbnz	r3, 18e <mbed::AnalogIn::lock()+0x2a>
     16c:	4d0c      	ldr	r5, [pc, #48]	; (1a0 <mbed::AnalogIn::lock()+0x3c>)
     16e:	f04f 31ff 	mov.w	r1, #4294967295	; 0xffffffff
     172:	6828      	ldr	r0, [r5, #0]
     174:	f001 fef6 	bl	1f64 <osMutexWait>
     178:	6823      	ldr	r3, [r4, #0]
     17a:	b92b      	cbnz	r3, 188 <mbed::AnalogIn::lock()+0x24>
     17c:	1d26      	adds	r6, r4, #4
     17e:	d002      	beq.n	186 <mbed::AnalogIn::lock()+0x22>
     180:	4630      	mov	r0, r6
     182:	f004 f889 	bl	4298 <rtos::Mutex::Mutex()>
     186:	6026      	str	r6, [r4, #0]
     188:	6828      	ldr	r0, [r5, #0]
     18a:	f001 ff13 	bl	1fb4 <osMutexRelease>
     18e:	6820      	ldr	r0, [r4, #0]
     190:	f04f 31ff 	mov.w	r1, #4294967295	; 0xffffffff
     194:	e8bd 4070 	ldmia.w	sp!, {r4, r5, r6, lr}
     198:	f004 b896 	b.w	42c8 <rtos::Mutex::lock(unsigned long)>
     19c:	10001a38 	.word	0x10001a38
     1a0:	10001e5c 	.word	0x10001e5c

000001a4 <mbed::AnalogOut::unlock()>:
     1a4:	3008      	adds	r0, #8
     1a6:	f004 b892 	b.w	42ce <rtos::Mutex::unlock()>

000001aa <mbed::AnalogIn::~AnalogIn()>:
     1aa:	b510      	push	{r4, lr}
     1ac:	4604      	mov	r4, r0
     1ae:	f003 ff8c 	bl	40ca <operator delete(void*)>
     1b2:	4620      	mov	r0, r4
     1b4:	bd10      	pop	{r4, pc}
	...

000001b8 <mbed::AnalogOut::~AnalogOut()>:
     1b8:	b510      	push	{r4, lr}
     1ba:	4604      	mov	r4, r0
     1bc:	4b03      	ldr	r3, [pc, #12]	; (1cc <mbed::AnalogOut::~AnalogOut()+0x14>)
     1be:	f840 3b08 	str.w	r3, [r0], #8
     1c2:	f004 f887 	bl	42d4 <rtos::Mutex::~Mutex()>
     1c6:	4620      	mov	r0, r4
     1c8:	bd10      	pop	{r4, pc}
     1ca:	bf00      	nop
     1cc:	000070a4 	.word	0x000070a4

000001d0 <mbed::AnalogOut::~AnalogOut()>:
     1d0:	b510      	push	{r4, lr}
     1d2:	4604      	mov	r4, r0
     1d4:	f7ff fff0 	bl	1b8 <mbed::AnalogOut::~AnalogOut()>
     1d8:	4620      	mov	r0, r4
     1da:	f003 ff76 	bl	40ca <operator delete(void*)>
     1de:	4620      	mov	r0, r4
     1e0:	bd10      	pop	{r4, pc}
	...

000001e4 <mbed::AnalogIn::unlock()>:
     1e4:	b570      	push	{r4, r5, r6, lr}
     1e6:	4c0c      	ldr	r4, [pc, #48]	; (218 <mbed::AnalogIn::unlock()+0x34>)
     1e8:	6823      	ldr	r3, [r4, #0]
     1ea:	b983      	cbnz	r3, 20e <mbed::AnalogIn::unlock()+0x2a>
     1ec:	4d0b      	ldr	r5, [pc, #44]	; (21c <mbed::AnalogIn::unlock()+0x38>)
     1ee:	f04f 31ff 	mov.w	r1, #4294967295	; 0xffffffff
     1f2:	6828      	ldr	r0, [r5, #0]
     1f4:	f001 feb6 	bl	1f64 <osMutexWait>
     1f8:	6823      	ldr	r3, [r4, #0]
     1fa:	b92b      	cbnz	r3, 208 <mbed::AnalogIn::unlock()+0x24>
     1fc:	1d26      	adds	r6, r4, #4
     1fe:	d002      	beq.n	206 <mbed::AnalogIn::unlock()+0x22>
     200:	4630      	mov	r0, r6
     202:	f004 f849 	bl	4298 <rtos::Mutex::Mutex()>
     206:	6026      	str	r6, [r4, #0]
     208:	6828      	ldr	r0, [r5, #0]
     20a:	f001 fed3 	bl	1fb4 <osMutexRelease>
     20e:	6820      	ldr	r0, [r4, #0]
     210:	e8bd 4070 	ldmia.w	sp!, {r4, r5, r6, lr}
     214:	f004 b85b 	b.w	42ce <rtos::Mutex::unlock()>
     218:	10001a38 	.word	0x10001a38
     21c:	10001e5c 	.word	0x10001e5c

00000220 <mbed::DigitalOut::DigitalOut(PinName)>:
     220:	b538      	push	{r3, r4, r5, lr}
     222:	4604      	mov	r4, r0
     224:	460d      	mov	r5, r1
     226:	2218      	movs	r2, #24
     228:	2100      	movs	r1, #0
     22a:	f005 fc62 	bl	5af2 <memset>
     22e:	4620      	mov	r0, r4
     230:	4629      	mov	r1, r5
     232:	f000 fe69 	bl	f08 <gpio_init_out>
     236:	4620      	mov	r0, r4
     238:	bd38      	pop	{r3, r4, r5, pc}
     23a:	0000      	movs	r0, r0
     23c:	0000      	movs	r0, r0
	...

00000240 <defineStep(float)>:
     240:	4b11      	ldr	r3, [pc, #68]	; (288 <defineStep(float)+0x48>)
     242:	b570      	push	{r4, r5, r6, lr}
     244:	6819      	ldr	r1, [r3, #0]
     246:	f004 fda9 	bl	4d9c <__aeabi_fsub>
     24a:	4606      	mov	r6, r0
     24c:	f020 4000 	bic.w	r0, r0, #2147483648	; 0x80000000
     250:	f004 fa62 	bl	4718 <__aeabi_f2d>
     254:	a30a      	add	r3, pc, #40	; (adr r3, 280 <defineStep(float)+0x40>)
     256:	e9d3 2300 	ldrd	r2, r3, [r3]
     25a:	f004 fd2d 	bl	4cb8 <__aeabi_dcmple>
     25e:	3000      	adds	r0, #0
     260:	bf18      	it	ne
     262:	2001      	movne	r0, #1
     264:	2100      	movs	r1, #0
     266:	0044      	lsls	r4, r0, #1
     268:	4630      	mov	r0, r6
     26a:	f04f 0501 	mov.w	r5, #1
     26e:	f005 f847 	bl	5300 <__aeabi_fcmple>
     272:	b900      	cbnz	r0, 276 <defineStep(float)+0x36>
     274:	4605      	mov	r5, r0
     276:	ea44 0005 	orr.w	r0, r4, r5
     27a:	f000 0003 	and.w	r0, r0, #3
     27e:	bd70      	pop	{r4, r5, r6, pc}
     280:	47ae147b 	.word	0x47ae147b
     284:	3fa47ae1 	.word	0x3fa47ae1
     288:	100000cc 	.word	0x100000cc

0000028c <stepSTOP()>:
     28c:	4b04      	ldr	r3, [pc, #16]	; (2a0 <stepSTOP()+0x14>)
     28e:	68da      	ldr	r2, [r3, #12]
     290:	685b      	ldr	r3, [r3, #4]
     292:	6013      	str	r3, [r2, #0]
     294:	4b03      	ldr	r3, [pc, #12]	; (2a4 <stepSTOP()+0x18>)
     296:	68da      	ldr	r2, [r3, #12]
     298:	685b      	ldr	r3, [r3, #4]
     29a:	6013      	str	r3, [r2, #0]
     29c:	4770      	bx	lr
     29e:	bf00      	nop
     2a0:	1000033c 	.word	0x1000033c
     2a4:	10000324 	.word	0x10000324

000002a8 <stepCon(float)>:
     2a8:	b508      	push	{r3, lr}
     2aa:	4904      	ldr	r1, [pc, #16]	; (2bc <stepCon(float)+0x14>)
     2ac:	f004 fe80 	bl	4fb0 <__aeabi_fmul>
     2b0:	4903      	ldr	r1, [pc, #12]	; (2c0 <stepCon(float)+0x18>)
     2b2:	f004 fd75 	bl	4da0 <__addsf3>
     2b6:	4b03      	ldr	r3, [pc, #12]	; (2c4 <stepCon(float)+0x1c>)
     2b8:	6018      	str	r0, [r3, #0]
     2ba:	bd08      	pop	{r3, pc}
     2bc:	3f51eb85 	.word	0x3f51eb85
     2c0:	3db851ec 	.word	0x3db851ec
     2c4:	100000cc 	.word	0x100000cc

000002c8 <AccCon(float)>:
     2c8:	b570      	push	{r4, r5, r6, lr}
     2ca:	4d13      	ldr	r5, [pc, #76]	; (318 <AccCon(float)+0x50>)
     2cc:	4604      	mov	r4, r0
     2ce:	682e      	ldr	r6, [r5, #0]
     2d0:	4601      	mov	r1, r0
     2d2:	4630      	mov	r0, r6
     2d4:	f005 f80a 	bl	52ec <__aeabi_fcmplt>
     2d8:	b150      	cbz	r0, 2f0 <AccCon(float)+0x28>
     2da:	4630      	mov	r0, r6
     2dc:	f004 fa1c 	bl	4718 <__aeabi_f2d>
     2e0:	a30b      	add	r3, pc, #44	; (adr r3, 310 <AccCon(float)+0x48>)
     2e2:	e9d3 2300 	ldrd	r2, r3, [r3]
     2e6:	f004 f8b9 	bl	445c <__adddf3>
     2ea:	f004 fd03 	bl	4cf4 <__aeabi_d2f>
     2ee:	4604      	mov	r4, r0
     2f0:	480a      	ldr	r0, [pc, #40]	; (31c <AccCon(float)+0x54>)
     2f2:	602c      	str	r4, [r5, #0]
     2f4:	f7ff ff31 	bl	15a <mbed::AnalogOut::lock()>
     2f8:	4621      	mov	r1, r4
     2fa:	4809      	ldr	r0, [pc, #36]	; (320 <AccCon(float)+0x58>)
     2fc:	f002 fa6a 	bl	27d4 <analogout_write>
     300:	e8bd 4070 	ldmia.w	sp!, {r4, r5, r6, lr}
     304:	4807      	ldr	r0, [pc, #28]	; (324 <AccCon(float)+0x5c>)
     306:	f003 bfe2 	b.w	42ce <rtos::Mutex::unlock()>
     30a:	bf00      	nop
     30c:	f3af 8000 	nop.w
     310:	d2f1a9fc 	.word	0xd2f1a9fc
     314:	3f50624d 	.word	0x3f50624d
     318:	100004d0 	.word	0x100004d0
     31c:	10000394 	.word	0x10000394
     320:	10000398 	.word	0x10000398
     324:	1000039c 	.word	0x1000039c

00000328 <BreakCon(float)>:
     328:	b538      	push	{r3, r4, r5, lr}
     32a:	4604      	mov	r4, r0
     32c:	4a1a      	ldr	r2, [pc, #104]	; (398 <BreakCon(float)+0x70>)
     32e:	491b      	ldr	r1, [pc, #108]	; (39c <BreakCon(float)+0x74>)
     330:	481b      	ldr	r0, [pc, #108]	; (3a0 <BreakCon(float)+0x78>)
     332:	f000 fd85 	bl	e40 <Servo::calibrate(float, float)>
     336:	4620      	mov	r0, r4
     338:	f004 f9ee 	bl	4718 <__aeabi_f2d>
     33c:	a312      	add	r3, pc, #72	; (adr r3, 388 <BreakCon(float)+0x60>)
     33e:	e9d3 2300 	ldrd	r2, r3, [r3]
     342:	4604      	mov	r4, r0
     344:	460d      	mov	r5, r1
     346:	f004 fcad 	bl	4ca4 <__aeabi_dcmplt>
     34a:	4b16      	ldr	r3, [pc, #88]	; (3a4 <BreakCon(float)+0x7c>)
     34c:	b1a8      	cbz	r0, 37a <BreakCon(float)+0x52>
     34e:	68da      	ldr	r2, [r3, #12]
     350:	685b      	ldr	r3, [r3, #4]
     352:	4620      	mov	r0, r4
     354:	6013      	str	r3, [r2, #0]
     356:	4629      	mov	r1, r5
     358:	a30d      	add	r3, pc, #52	; (adr r3, 390 <BreakCon(float)+0x68>)
     35a:	e9d3 2300 	ldrd	r2, r3, [r3]
     35e:	f004 fa2f 	bl	47c0 <__aeabi_dmul>
     362:	2200      	movs	r2, #0
     364:	4b10      	ldr	r3, [pc, #64]	; (3a8 <BreakCon(float)+0x80>)
     366:	f004 f879 	bl	445c <__adddf3>
     36a:	f004 fcc3 	bl	4cf4 <__aeabi_d2f>
     36e:	4601      	mov	r1, r0
     370:	e8bd 4038 	ldmia.w	sp!, {r3, r4, r5, lr}
     374:	480a      	ldr	r0, [pc, #40]	; (3a0 <BreakCon(float)+0x78>)
     376:	f000 bd66 	b.w	e46 <Servo::operator=(float)>
     37a:	691a      	ldr	r2, [r3, #16]
     37c:	685b      	ldr	r3, [r3, #4]
     37e:	f04f 517e 	mov.w	r1, #1065353216	; 0x3f800000
     382:	6013      	str	r3, [r2, #0]
     384:	e7f4      	b.n	370 <BreakCon(float)+0x48>
     386:	bf00      	nop
     388:	9999999a 	.word	0x9999999a
     38c:	bfb99999 	.word	0xbfb99999
     390:	66666666 	.word	0x66666666
     394:	3ff66666 	.word	0x3ff66666
     398:	42340000 	.word	0x42340000
     39c:	3a03126f 	.word	0x3a03126f
     3a0:	100004bc 	.word	0x100004bc
     3a4:	100004a4 	.word	0x100004a4
     3a8:	3ff00000 	.word	0x3ff00000

000003ac <DirCon(float)>:
     3ac:	b508      	push	{r3, lr}
     3ae:	f04f 517c 	mov.w	r1, #1056964608	; 0x3f000000
     3b2:	f004 ffb9 	bl	5328 <__aeabi_fcmpgt>
     3b6:	4b04      	ldr	r3, [pc, #16]	; (3c8 <DirCon(float)+0x1c>)
     3b8:	b118      	cbz	r0, 3c2 <DirCon(float)+0x16>
     3ba:	68da      	ldr	r2, [r3, #12]
     3bc:	685b      	ldr	r3, [r3, #4]
     3be:	6013      	str	r3, [r2, #0]
     3c0:	bd08      	pop	{r3, pc}
     3c2:	691a      	ldr	r2, [r3, #16]
     3c4:	e7fa      	b.n	3bc <DirCon(float)+0x10>
     3c6:	bf00      	nop
     3c8:	100004ec 	.word	0x100004ec

000003cc <RosRun(float*)>:
     3cc:	b510      	push	{r4, lr}
     3ce:	4604      	mov	r4, r0
     3d0:	6900      	ldr	r0, [r0, #16]
     3d2:	f7ff ff79 	bl	2c8 <AccCon(float)>
     3d6:	6960      	ldr	r0, [r4, #20]
     3d8:	f7ff ff66 	bl	2a8 <stepCon(float)>
     3dc:	69a0      	ldr	r0, [r4, #24]
     3de:	f7ff ffa3 	bl	328 <BreakCon(float)>
     3e2:	69e0      	ldr	r0, [r4, #28]
     3e4:	e8bd 4010 	ldmia.w	sp!, {r4, lr}
     3e8:	f7ff bfe0 	b.w	3ac <DirCon(float)>

000003ec <ControllerRun(float*)>:
     3ec:	b510      	push	{r4, lr}
     3ee:	4604      	mov	r4, r0
     3f0:	6800      	ldr	r0, [r0, #0]
     3f2:	f7ff ff69 	bl	2c8 <AccCon(float)>
     3f6:	6860      	ldr	r0, [r4, #4]
     3f8:	f7ff ff56 	bl	2a8 <stepCon(float)>
     3fc:	68a0      	ldr	r0, [r4, #8]
     3fe:	f7ff ff93 	bl	328 <BreakCon(float)>
     402:	68e0      	ldr	r0, [r4, #12]
     404:	e8bd 4010 	ldmia.w	sp!, {r4, lr}
     408:	f7ff bfd0 	b.w	3ac <DirCon(float)>

0000040c <mbed::Callback<void ()>::~Callback()>:
     40c:	68c3      	ldr	r3, [r0, #12]
     40e:	b510      	push	{r4, lr}
     410:	4604      	mov	r4, r0
     412:	b10b      	cbz	r3, 418 <mbed::Callback<void ()>::~Callback()+0xc>
     414:	689b      	ldr	r3, [r3, #8]
     416:	4798      	blx	r3
     418:	4620      	mov	r0, r4
     41a:	bd10      	pop	{r4, pc}

0000041c <mbed::Ticker::~Ticker()>:
     41c:	b538      	push	{r3, r4, r5, lr}
     41e:	4605      	mov	r5, r0
     420:	4604      	mov	r4, r0
     422:	4b06      	ldr	r3, [pc, #24]	; (43c <mbed::Ticker::~Ticker()+0x20>)
     424:	f845 3b18 	str.w	r3, [r5], #24
     428:	f003 f91c 	bl	3664 <mbed::Ticker::detach()>
     42c:	4628      	mov	r0, r5
     42e:	f7ff ffed 	bl	40c <mbed::Callback<void ()>::~Callback()>
     432:	4620      	mov	r0, r4
     434:	f003 fc22 	bl	3c7c <mbed::TimerEvent::~TimerEvent()>
     438:	4620      	mov	r0, r4
     43a:	bd38      	pop	{r3, r4, r5, pc}
     43c:	000074c0 	.word	0x000074c0

00000440 <mbed::Ticker::~Ticker()>:
     440:	b510      	push	{r4, lr}
     442:	4604      	mov	r4, r0
     444:	f7ff ffea 	bl	41c <mbed::Ticker::~Ticker()>
     448:	4620      	mov	r0, r4
     44a:	f003 fe3e 	bl	40ca <operator delete(void*)>
     44e:	4620      	mov	r0, r4
     450:	bd10      	pop	{r4, pc}
	...

00000454 <mbed::Timeout::~Timeout()>:
     454:	b510      	push	{r4, lr}
     456:	4604      	mov	r4, r0
     458:	4b02      	ldr	r3, [pc, #8]	; (464 <mbed::Timeout::~Timeout()+0x10>)
     45a:	6003      	str	r3, [r0, #0]
     45c:	f7ff ffde 	bl	41c <mbed::Ticker::~Ticker()>
     460:	4620      	mov	r0, r4
     462:	bd10      	pop	{r4, pc}
     464:	000075c0 	.word	0x000075c0

00000468 <mbed::Callback<void ()>::Callback(mbed::Callback<void ()> const&)>:
     468:	b538      	push	{r3, r4, r5, lr}
     46a:	68cb      	ldr	r3, [r1, #12]
     46c:	4604      	mov	r4, r0
     46e:	460d      	mov	r5, r1
     470:	b10b      	cbz	r3, 476 <mbed::Callback<void ()>::Callback(mbed::Callback<void ()> const&)+0xe>
     472:	685b      	ldr	r3, [r3, #4]
     474:	4798      	blx	r3
     476:	68eb      	ldr	r3, [r5, #12]
     478:	4620      	mov	r0, r4
     47a:	60e3      	str	r3, [r4, #12]
     47c:	bd38      	pop	{r3, r4, r5, pc}
	...

00000480 <mbed::Ticker::attach(mbed::Callback<void ()>, float)>:
     480:	b5f0      	push	{r4, r5, r6, r7, lr}
     482:	4615      	mov	r5, r2
     484:	b085      	sub	sp, #20
     486:	4606      	mov	r6, r0
     488:	4668      	mov	r0, sp
     48a:	f7ff ffed 	bl	468 <mbed::Callback<void ()>::Callback(mbed::Callback<void ()> const&)>
     48e:	490e      	ldr	r1, [pc, #56]	; (4c8 <mbed::Ticker::attach(mbed::Callback<void ()>, float)+0x48>)
     490:	4628      	mov	r0, r5
     492:	f004 fd8d 	bl	4fb0 <__aeabi_fmul>
     496:	466c      	mov	r4, sp
     498:	f004 ff76 	bl	5388 <__aeabi_f2uiz>
     49c:	f106 0518 	add.w	r5, r6, #24
     4a0:	42a5      	cmp	r5, r4
     4a2:	4607      	mov	r7, r0
     4a4:	d007      	beq.n	4b6 <mbed::Ticker::attach(mbed::Callback<void ()>, float)+0x36>
     4a6:	4628      	mov	r0, r5
     4a8:	f7ff ffb0 	bl	40c <mbed::Callback<void ()>::~Callback()>
     4ac:	b11d      	cbz	r5, 4b6 <mbed::Ticker::attach(mbed::Callback<void ()>, float)+0x36>
     4ae:	4669      	mov	r1, sp
     4b0:	4628      	mov	r0, r5
     4b2:	f7ff ffd9 	bl	468 <mbed::Callback<void ()>::Callback(mbed::Callback<void ()> const&)>
     4b6:	4639      	mov	r1, r7
     4b8:	4630      	mov	r0, r6
     4ba:	f003 f8bf 	bl	363c <mbed::Ticker::setup(unsigned long)>
     4be:	4620      	mov	r0, r4
     4c0:	f7ff ffa4 	bl	40c <mbed::Callback<void ()>::~Callback()>
     4c4:	b005      	add	sp, #20
     4c6:	bdf0      	pop	{r4, r5, r6, r7, pc}
     4c8:	49742400 	.word	0x49742400

000004cc <stepCW()>:
     4cc:	b51f      	push	{r0, r1, r2, r3, r4, lr}
     4ce:	4b0d      	ldr	r3, [pc, #52]	; (504 <stepCW()+0x38>)
     4d0:	4669      	mov	r1, sp
     4d2:	691a      	ldr	r2, [r3, #16]
     4d4:	685b      	ldr	r3, [r3, #4]
     4d6:	480c      	ldr	r0, [pc, #48]	; (508 <stepCW()+0x3c>)
     4d8:	6013      	str	r3, [r2, #0]
     4da:	4b0c      	ldr	r3, [pc, #48]	; (50c <stepCW()+0x40>)
     4dc:	68da      	ldr	r2, [r3, #12]
     4de:	685b      	ldr	r3, [r3, #4]
     4e0:	6013      	str	r3, [r2, #0]
     4e2:	4b0b      	ldr	r3, [pc, #44]	; (510 <stepCW()+0x44>)
     4e4:	68da      	ldr	r2, [r3, #12]
     4e6:	685b      	ldr	r3, [r3, #4]
     4e8:	6013      	str	r3, [r2, #0]
     4ea:	4b0a      	ldr	r3, [pc, #40]	; (514 <stepCW()+0x48>)
     4ec:	4a0a      	ldr	r2, [pc, #40]	; (518 <stepCW()+0x4c>)
     4ee:	9300      	str	r3, [sp, #0]
     4f0:	4b0a      	ldr	r3, [pc, #40]	; (51c <stepCW()+0x50>)
     4f2:	9303      	str	r3, [sp, #12]
     4f4:	f7ff ffc4 	bl	480 <mbed::Ticker::attach(mbed::Callback<void ()>, float)>
     4f8:	4668      	mov	r0, sp
     4fa:	f7ff ff87 	bl	40c <mbed::Callback<void ()>::~Callback()>
     4fe:	b005      	add	sp, #20
     500:	f85d fb04 	ldr.w	pc, [sp], #4
     504:	1000033c 	.word	0x1000033c
     508:	10000630 	.word	0x10000630
     50c:	10000324 	.word	0x10000324
     510:	10000354 	.word	0x10000354
     514:	0000013d 	.word	0x0000013d
     518:	399d4952 	.word	0x399d4952
     51c:	000070b4 	.word	0x000070b4

00000520 <stepCCW()>:
     520:	b51f      	push	{r0, r1, r2, r3, r4, lr}
     522:	4b0d      	ldr	r3, [pc, #52]	; (558 <stepCCW()+0x38>)
     524:	4669      	mov	r1, sp
     526:	691a      	ldr	r2, [r3, #16]
     528:	685b      	ldr	r3, [r3, #4]
     52a:	480c      	ldr	r0, [pc, #48]	; (55c <stepCCW()+0x3c>)
     52c:	6013      	str	r3, [r2, #0]
     52e:	4b0c      	ldr	r3, [pc, #48]	; (560 <stepCCW()+0x40>)
     530:	691a      	ldr	r2, [r3, #16]
     532:	685b      	ldr	r3, [r3, #4]
     534:	6013      	str	r3, [r2, #0]
     536:	4b0b      	ldr	r3, [pc, #44]	; (564 <stepCCW()+0x44>)
     538:	68da      	ldr	r2, [r3, #12]
     53a:	685b      	ldr	r3, [r3, #4]
     53c:	6013      	str	r3, [r2, #0]
     53e:	4b0a      	ldr	r3, [pc, #40]	; (568 <stepCCW()+0x48>)
     540:	4a0a      	ldr	r2, [pc, #40]	; (56c <stepCCW()+0x4c>)
     542:	9300      	str	r3, [sp, #0]
     544:	4b0a      	ldr	r3, [pc, #40]	; (570 <stepCCW()+0x50>)
     546:	9303      	str	r3, [sp, #12]
     548:	f7ff ff9a 	bl	480 <mbed::Ticker::attach(mbed::Callback<void ()>, float)>
     54c:	4668      	mov	r0, sp
     54e:	f7ff ff5d 	bl	40c <mbed::Callback<void ()>::~Callback()>
     552:	b005      	add	sp, #20
     554:	f85d fb04 	ldr.w	pc, [sp], #4
     558:	1000033c 	.word	0x1000033c
     55c:	10000630 	.word	0x10000630
     560:	10000324 	.word	0x10000324
     564:	10000354 	.word	0x10000354
     568:	0000013d 	.word	0x0000013d
     56c:	399d4952 	.word	0x399d4952
     570:	000070b4 	.word	0x000070b4

00000574 <step()>:
     574:	b510      	push	{r4, lr}
     576:	4818      	ldr	r0, [pc, #96]	; (5d8 <step()+0x64>)
     578:	f7ff fdf4 	bl	164 <mbed::AnalogIn::lock()>
     57c:	4817      	ldr	r0, [pc, #92]	; (5dc <step()+0x68>)
     57e:	f002 fc2b 	bl	2dd8 <analogin_read>
     582:	4604      	mov	r4, r0
     584:	4814      	ldr	r0, [pc, #80]	; (5d8 <step()+0x64>)
     586:	f7ff fe2d 	bl	1e4 <mbed::AnalogIn::unlock()>
     58a:	4620      	mov	r0, r4
     58c:	f7ff fe58 	bl	240 <defineStep(float)>
     590:	0843      	lsrs	r3, r0, #1
     592:	d003      	beq.n	59c <step()+0x28>
     594:	e8bd 4010 	ldmia.w	sp!, {r4, lr}
     598:	f7ff be78 	b.w	28c <stepSTOP()>
     59c:	4b10      	ldr	r3, [pc, #64]	; (5e0 <step()+0x6c>)
     59e:	f010 0f01 	tst.w	r0, #1
     5a2:	681a      	ldr	r2, [r3, #0]
     5a4:	d00c      	beq.n	5c0 <step()+0x4c>
     5a6:	2a00      	cmp	r2, #0
     5a8:	da02      	bge.n	5b0 <step()+0x3c>
     5aa:	2200      	movs	r2, #0
     5ac:	601a      	str	r2, [r3, #0]
     5ae:	e7f1      	b.n	594 <step()+0x20>
     5b0:	2a0a      	cmp	r2, #10
     5b2:	dd03      	ble.n	5bc <step()+0x48>
     5b4:	e8bd 4010 	ldmia.w	sp!, {r4, lr}
     5b8:	f7ff bf88 	b.w	4cc <stepCW()>
     5bc:	3201      	adds	r2, #1
     5be:	e7f5      	b.n	5ac <step()+0x38>
     5c0:	2a00      	cmp	r2, #0
     5c2:	dcf2      	bgt.n	5aa <step()+0x36>
     5c4:	f112 0f0a 	cmn.w	r2, #10
     5c8:	da03      	bge.n	5d2 <step()+0x5e>
     5ca:	e8bd 4010 	ldmia.w	sp!, {r4, lr}
     5ce:	f7ff bfa7 	b.w	520 <stepCCW()>
     5d2:	3a01      	subs	r2, #1
     5d4:	e7ea      	b.n	5ac <step()+0x38>
     5d6:	bf00      	nop
     5d8:	100005c4 	.word	0x100005c4
     5dc:	100005c8 	.word	0x100005c8
     5e0:	1000062c 	.word	0x1000062c
     5e4:	00000000 	.word	0x00000000

000005e8 <main>:
     5e8:	e92d 4ff0 	stmdb	sp!, {r4, r5, r6, r7, r8, r9, r10, r11, lr}
     5ec:	4da2      	ldr	r5, [pc, #648]	; (878 <Heap_Size+0x78>)
     5ee:	b08d      	sub	sp, #52	; 0x34
     5f0:	ac04      	add	r4, sp, #16
     5f2:	cd0f      	ldmia	r5!, {r0, r1, r2, r3}
     5f4:	c40f      	stmia	r4!, {r0, r1, r2, r3}
     5f6:	e895 000f 	ldmia.w	r5, {r0, r1, r2, r3}
     5fa:	f04f 567c 	mov.w	r6, #1056964608	; 0x3f000000
     5fe:	e884 000f 	stmia.w	r4, {r0, r1, r2, r3}
     602:	f04f 557e 	mov.w	r5, #1065353216	; 0x3f800000
     606:	2400      	movs	r4, #0
     608:	4b9c      	ldr	r3, [pc, #624]	; (87c <Heap_Size+0x7c>)
     60a:	4a9d      	ldr	r2, [pc, #628]	; (880 <Heap_Size+0x80>)
     60c:	9300      	str	r3, [sp, #0]
     60e:	4b9d      	ldr	r3, [pc, #628]	; (884 <Heap_Size+0x84>)
     610:	4669      	mov	r1, sp
     612:	489d      	ldr	r0, [pc, #628]	; (888 <Heap_Size+0x88>)
     614:	9303      	str	r3, [sp, #12]
     616:	f7ff ff33 	bl	480 <mbed::Ticker::attach(mbed::Callback<void ()>, float)>
     61a:	4668      	mov	r0, sp
     61c:	f7ff fef6 	bl	40c <mbed::Callback<void ()>::~Callback()>
     620:	4b9a      	ldr	r3, [pc, #616]	; (88c <Heap_Size+0x8c>)
     622:	9300      	str	r3, [sp, #0]
     624:	4b9a      	ldr	r3, [pc, #616]	; (890 <Heap_Size+0x90>)
     626:	9301      	str	r3, [sp, #4]
     628:	489a      	ldr	r0, [pc, #616]	; (894 <Heap_Size+0x94>)
     62a:	f000 fb50 	bl	cce <PwmIn::dutycycle()>
     62e:	489a      	ldr	r0, [pc, #616]	; (898 <Heap_Size+0x98>)
     630:	f000 fb4d 	bl	cce <PwmIn::dutycycle()>
     634:	4899      	ldr	r0, [pc, #612]	; (89c <Heap_Size+0x9c>)
     636:	f000 fb4a 	bl	cce <PwmIn::dutycycle()>
     63a:	4682      	mov	r10, r0
     63c:	4898      	ldr	r0, [pc, #608]	; (8a0 <Heap_Size+0xa0>)
     63e:	f000 fb46 	bl	cce <PwmIn::dutycycle()>
     642:	4607      	mov	r7, r0
     644:	4897      	ldr	r0, [pc, #604]	; (8a4 <Heap_Size+0xa4>)
     646:	f000 fb42 	bl	cce <PwmIn::dutycycle()>
     64a:	4680      	mov	r8, r0
     64c:	4896      	ldr	r0, [pc, #600]	; (8a8 <Heap_Size+0xa8>)
     64e:	f000 fb3e 	bl	cce <PwmIn::dutycycle()>
     652:	4681      	mov	r9, r0
     654:	4650      	mov	r0, r10
     656:	f004 f85f 	bl	4718 <__aeabi_f2d>
     65a:	a37f      	add	r3, pc, #508	; (adr r3, 858 <Heap_Size+0x58>)
     65c:	e9d3 2300 	ldrd	r2, r3, [r3]
     660:	f003 fefa 	bl	4458 <__aeabi_dsub>
     664:	a37e      	add	r3, pc, #504	; (adr r3, 860 <Heap_Size+0x60>)
     666:	e9d3 2300 	ldrd	r2, r3, [r3]
     66a:	f004 f9d3 	bl	4a14 <__aeabi_ddiv>
     66e:	f004 fb41 	bl	4cf4 <__aeabi_d2f>
     672:	4682      	mov	r10, r0
     674:	4638      	mov	r0, r7
     676:	f004 f84f 	bl	4718 <__aeabi_f2d>
     67a:	a377      	add	r3, pc, #476	; (adr r3, 858 <Heap_Size+0x58>)
     67c:	e9d3 2300 	ldrd	r2, r3, [r3]
     680:	f003 feea 	bl	4458 <__aeabi_dsub>
     684:	a376      	add	r3, pc, #472	; (adr r3, 860 <Heap_Size+0x60>)
     686:	e9d3 2300 	ldrd	r2, r3, [r3]
     68a:	f004 f9c3 	bl	4a14 <__aeabi_ddiv>
     68e:	f004 fb31 	bl	4cf4 <__aeabi_d2f>
     692:	4607      	mov	r7, r0
     694:	4640      	mov	r0, r8
     696:	f004 f83f 	bl	4718 <__aeabi_f2d>
     69a:	a36f      	add	r3, pc, #444	; (adr r3, 858 <Heap_Size+0x58>)
     69c:	e9d3 2300 	ldrd	r2, r3, [r3]
     6a0:	f003 feda 	bl	4458 <__aeabi_dsub>
     6a4:	a36e      	add	r3, pc, #440	; (adr r3, 860 <Heap_Size+0x60>)
     6a6:	e9d3 2300 	ldrd	r2, r3, [r3]
     6aa:	f004 f9b3 	bl	4a14 <__aeabi_ddiv>
     6ae:	f004 fb21 	bl	4cf4 <__aeabi_d2f>
     6b2:	4680      	mov	r8, r0
     6b4:	4648      	mov	r0, r9
     6b6:	f004 f82f 	bl	4718 <__aeabi_f2d>
     6ba:	a367      	add	r3, pc, #412	; (adr r3, 858 <Heap_Size+0x58>)
     6bc:	e9d3 2300 	ldrd	r2, r3, [r3]
     6c0:	f003 feca 	bl	4458 <__aeabi_dsub>
     6c4:	a366      	add	r3, pc, #408	; (adr r3, 860 <Heap_Size+0x60>)
     6c6:	e9d3 2300 	ldrd	r2, r3, [r3]
     6ca:	f004 f9a3 	bl	4a14 <__aeabi_ddiv>
     6ce:	f004 fb11 	bl	4cf4 <__aeabi_d2f>
     6d2:	4629      	mov	r1, r5
     6d4:	4681      	mov	r9, r0
     6d6:	4650      	mov	r0, r10
     6d8:	f004 fe26 	bl	5328 <__aeabi_fcmpgt>
     6dc:	2800      	cmp	r0, #0
     6de:	d177      	bne.n	7d0 <main+0x1e8>
     6e0:	4621      	mov	r1, r4
     6e2:	4650      	mov	r0, r10
     6e4:	f004 fe02 	bl	52ec <__aeabi_fcmplt>
     6e8:	b100      	cbz	r0, 6ec <main+0x104>
     6ea:	46a2      	mov	r10, r4
     6ec:	4629      	mov	r1, r5
     6ee:	4638      	mov	r0, r7
     6f0:	f004 fe1a 	bl	5328 <__aeabi_fcmpgt>
     6f4:	2800      	cmp	r0, #0
     6f6:	d16d      	bne.n	7d4 <main+0x1ec>
     6f8:	4621      	mov	r1, r4
     6fa:	4638      	mov	r0, r7
     6fc:	f004 fdf6 	bl	52ec <__aeabi_fcmplt>
     700:	b100      	cbz	r0, 704 <main+0x11c>
     702:	4627      	mov	r7, r4
     704:	4629      	mov	r1, r5
     706:	4640      	mov	r0, r8
     708:	f004 fe0e 	bl	5328 <__aeabi_fcmpgt>
     70c:	2800      	cmp	r0, #0
     70e:	d163      	bne.n	7d8 <main+0x1f0>
     710:	4621      	mov	r1, r4
     712:	4640      	mov	r0, r8
     714:	f004 fdea 	bl	52ec <__aeabi_fcmplt>
     718:	b100      	cbz	r0, 71c <main+0x134>
     71a:	46a0      	mov	r8, r4
     71c:	4629      	mov	r1, r5
     71e:	4648      	mov	r0, r9
     720:	f004 fe02 	bl	5328 <__aeabi_fcmpgt>
     724:	f8df b190 	ldr.w	r11, [pc, #400]	; 8b8 <Heap_Size+0xb8>
     728:	b958      	cbnz	r0, 742 <main+0x15a>
     72a:	4621      	mov	r1, r4
     72c:	4648      	mov	r0, r9
     72e:	f004 fddd 	bl	52ec <__aeabi_fcmplt>
     732:	2800      	cmp	r0, #0
     734:	d152      	bne.n	7dc <main+0x1f4>
     736:	4631      	mov	r1, r6
     738:	4648      	mov	r0, r9
     73a:	f004 fdf5 	bl	5328 <__aeabi_fcmpgt>
     73e:	2800      	cmp	r0, #0
     740:	d04c      	beq.n	7dc <main+0x1f4>
     742:	f8db 300c 	ldr.w	r3, [r11, #12]
     746:	f8db 2004 	ldr.w	r2, [r11, #4]
     74a:	f04f 0b01 	mov.w	r11, #1
     74e:	601a      	str	r2, [r3, #0]
     750:	4631      	mov	r1, r6
     752:	4640      	mov	r0, r8
     754:	f004 fde8 	bl	5328 <__aeabi_fcmpgt>
     758:	4b54      	ldr	r3, [pc, #336]	; (8ac <Heap_Size+0xac>)
     75a:	2800      	cmp	r0, #0
     75c:	d046      	beq.n	7ec <main+0x204>
     75e:	46a9      	mov	r9, r5
     760:	691a      	ldr	r2, [r3, #16]
     762:	685b      	ldr	r3, [r3, #4]
     764:	6013      	str	r3, [r2, #0]
     766:	f8df 8154 	ldr.w	r8, [pc, #340]	; 8bc <Heap_Size+0xbc>
     76a:	f1bb 0f00 	cmp.w	r11, #0
     76e:	d064      	beq.n	83a <Heap_Size+0x3a>
     770:	4631      	mov	r1, r6
     772:	4638      	mov	r0, r7
     774:	f004 fdd8 	bl	5328 <__aeabi_fcmpgt>
     778:	2800      	cmp	r0, #0
     77a:	d03c      	beq.n	7f6 <main+0x20e>
     77c:	4638      	mov	r0, r7
     77e:	f003 ffcb 	bl	4718 <__aeabi_f2d>
     782:	2200      	movs	r2, #0
     784:	4b4a      	ldr	r3, [pc, #296]	; (8b0 <Heap_Size+0xb0>)
     786:	f003 fe67 	bl	4458 <__aeabi_dsub>
     78a:	a337      	add	r3, pc, #220	; (adr r3, 868 <Heap_Size+0x68>)
     78c:	e9d3 2300 	ldrd	r2, r3, [r3]
     790:	f004 f816 	bl	47c0 <__aeabi_dmul>
     794:	f004 faae 	bl	4cf4 <__aeabi_d2f>
     798:	9004      	str	r0, [sp, #16]
     79a:	4631      	mov	r1, r6
     79c:	4638      	mov	r0, r7
     79e:	f8cd a014 	str.w	r10, [sp, #20]
     7a2:	f004 fafb 	bl	4d9c <__aeabi_fsub>
     7a6:	f8d8 3010 	ldr.w	r3, [r8, #16]
     7aa:	9006      	str	r0, [sp, #24]
     7ac:	f8cd 901c 	str.w	r9, [sp, #28]
     7b0:	9408      	str	r4, [sp, #32]
     7b2:	9609      	str	r6, [sp, #36]	; 0x24
     7b4:	950a      	str	r5, [sp, #40]	; 0x28
     7b6:	f8cd 902c 	str.w	r9, [sp, #44]	; 0x2c
     7ba:	f8d8 2004 	ldr.w	r2, [r8, #4]
     7be:	a804      	add	r0, sp, #16
     7c0:	601a      	str	r2, [r3, #0]
     7c2:	ab0c      	add	r3, sp, #48	; 0x30
     7c4:	eb03 0b8b 	add.w	r11, r3, r11, lsl #2
     7c8:	f85b 3c30 	ldr.w	r3, [r11, #-48]
     7cc:	4798      	blx	r3
     7ce:	e72b      	b.n	628 <main+0x40>
     7d0:	46aa      	mov	r10, r5
     7d2:	e78b      	b.n	6ec <main+0x104>
     7d4:	462f      	mov	r7, r5
     7d6:	e795      	b.n	704 <main+0x11c>
     7d8:	46a8      	mov	r8, r5
     7da:	e79f      	b.n	71c <main+0x134>
     7dc:	f8db 3010 	ldr.w	r3, [r11, #16]
     7e0:	f8db 2004 	ldr.w	r2, [r11, #4]
     7e4:	f04f 0b00 	mov.w	r11, #0
     7e8:	601a      	str	r2, [r3, #0]
     7ea:	e7b1      	b.n	750 <main+0x168>
     7ec:	68da      	ldr	r2, [r3, #12]
     7ee:	685b      	ldr	r3, [r3, #4]
     7f0:	46a1      	mov	r9, r4
     7f2:	6013      	str	r3, [r2, #0]
     7f4:	e7b7      	b.n	766 <main+0x17e>
     7f6:	4631      	mov	r1, r6
     7f8:	4638      	mov	r0, r7
     7fa:	f004 fd77 	bl	52ec <__aeabi_fcmplt>
     7fe:	b150      	cbz	r0, 816 <Heap_Size+0x16>
     800:	4638      	mov	r0, r7
     802:	f003 ff89 	bl	4718 <__aeabi_f2d>
     806:	a31a      	add	r3, pc, #104	; (adr r3, 870 <Heap_Size+0x70>)
     808:	e9d3 2300 	ldrd	r2, r3, [r3]
     80c:	f004 fa68 	bl	4ce0 <__aeabi_dcmpgt>
     810:	b108      	cbz	r0, 816 <Heap_Size+0x16>
     812:	9404      	str	r4, [sp, #16]
     814:	e7c1      	b.n	79a <main+0x1b2>
     816:	4631      	mov	r1, r6
     818:	4638      	mov	r0, r7
     81a:	9404      	str	r4, [sp, #16]
     81c:	f8cd a014 	str.w	r10, [sp, #20]
     820:	f004 fabc 	bl	4d9c <__aeabi_fsub>
     824:	f8cd 901c 	str.w	r9, [sp, #28]
     828:	9006      	str	r0, [sp, #24]
     82a:	9408      	str	r4, [sp, #32]
     82c:	9609      	str	r6, [sp, #36]	; 0x24
     82e:	950a      	str	r5, [sp, #40]	; 0x28
     830:	f8cd 902c 	str.w	r9, [sp, #44]	; 0x2c
     834:	f8d8 300c 	ldr.w	r3, [r8, #12]
     838:	e7bf      	b.n	7ba <main+0x1d2>
     83a:	4b1e      	ldr	r3, [pc, #120]	; (8b4 <Heap_Size+0xb4>)
     83c:	9404      	str	r4, [sp, #16]
     83e:	f8cd a014 	str.w	r10, [sp, #20]
     842:	9306      	str	r3, [sp, #24]
     844:	f8cd 901c 	str.w	r9, [sp, #28]
     848:	9408      	str	r4, [sp, #32]
     84a:	9609      	str	r6, [sp, #36]	; 0x24
     84c:	930a      	str	r3, [sp, #40]	; 0x28
     84e:	950b      	str	r5, [sp, #44]	; 0x2c
     850:	e7f0      	b.n	834 <Heap_Size+0x34>
     852:	bf00      	nop
     854:	f3af 8000 	nop.w
     858:	b6ae7d56 	.word	0xb6ae7d56
     85c:	3fa97f62 	.word	0x3fa97f62
     860:	c49ba5e4 	.word	0xc49ba5e4
     864:	3fa2b020 	.word	0x3fa2b020
     868:	66666666 	.word	0x66666666
     86c:	3fee6666 	.word	0x3fee6666
     870:	9999999a 	.word	0x9999999a
     874:	3fd99999 	.word	0x3fd99999
     878:	000070c0 	.word	0x000070c0
     87c:	00000575 	.word	0x00000575
     880:	3ac49ba6 	.word	0x3ac49ba6
     884:	000070b4 	.word	0x000070b4
     888:	1000036c 	.word	0x1000036c
     88c:	000003cd 	.word	0x000003cd
     890:	000003ed 	.word	0x000003ed
     894:	10000658 	.word	0x10000658
     898:	100003b4 	.word	0x100003b4
     89c:	100005cc 	.word	0x100005cc
     8a0:	10000504 	.word	0x10000504
     8a4:	10000564 	.word	0x10000564
     8a8:	1000042c 	.word	0x1000042c
     8ac:	100004d4 	.word	0x100004d4
     8b0:	3fe00000 	.word	0x3fe00000
     8b4:	bf800000 	.word	0xbf800000
     8b8:	10000414 	.word	0x10000414
     8bc:	1000048c 	.word	0x1000048c

000008c0 <mbed::Timeout::~Timeout()>:
     8c0:	b510      	push	{r4, lr}
     8c2:	4604      	mov	r4, r0
     8c4:	f7ff fdc6 	bl	454 <mbed::Timeout::~Timeout()>
     8c8:	4620      	mov	r0, r4
     8ca:	f003 fbfe 	bl	40ca <operator delete(void*)>
     8ce:	4620      	mov	r0, r4
     8d0:	bd10      	pop	{r4, pc}
	...

000008d4 <_GLOBAL__sub_I_automodeLED>:
     8d4:	b570      	push	{r4, r5, r6, lr}
     8d6:	4951      	ldr	r1, [pc, #324]	; (a1c <_GLOBAL__sub_I_automodeLED+0x148>)
     8d8:	4851      	ldr	r0, [pc, #324]	; (a20 <_GLOBAL__sub_I_automodeLED+0x14c>)
     8da:	f7ff fca1 	bl	220 <mbed::DigitalOut::DigitalOut(PinName)>
     8de:	4951      	ldr	r1, [pc, #324]	; (a24 <_GLOBAL__sub_I_automodeLED+0x150>)
     8e0:	4851      	ldr	r0, [pc, #324]	; (a28 <_GLOBAL__sub_I_automodeLED+0x154>)
     8e2:	f7ff fc9d 	bl	220 <mbed::DigitalOut::DigitalOut(PinName)>
     8e6:	4e51      	ldr	r6, [pc, #324]	; (a2c <_GLOBAL__sub_I_automodeLED+0x158>)
     8e8:	4951      	ldr	r1, [pc, #324]	; (a30 <_GLOBAL__sub_I_automodeLED+0x15c>)
     8ea:	4852      	ldr	r0, [pc, #328]	; (a34 <_GLOBAL__sub_I_automodeLED+0x160>)
     8ec:	f7ff fc98 	bl	220 <mbed::DigitalOut::DigitalOut(PinName)>
     8f0:	4951      	ldr	r1, [pc, #324]	; (a38 <_GLOBAL__sub_I_automodeLED+0x164>)
     8f2:	4852      	ldr	r0, [pc, #328]	; (a3c <_GLOBAL__sub_I_automodeLED+0x168>)
     8f4:	4c52      	ldr	r4, [pc, #328]	; (a40 <_GLOBAL__sub_I_automodeLED+0x16c>)
     8f6:	4d53      	ldr	r5, [pc, #332]	; (a44 <_GLOBAL__sub_I_automodeLED+0x170>)
     8f8:	f7ff fc92 	bl	220 <mbed::DigitalOut::DigitalOut(PinName)>
     8fc:	4952      	ldr	r1, [pc, #328]	; (a48 <_GLOBAL__sub_I_automodeLED+0x174>)
     8fe:	4630      	mov	r0, r6
     900:	f000 f9ec 	bl	cdc <PwmIn::PwmIn(PinName)>
     904:	4630      	mov	r0, r6
     906:	4e51      	ldr	r6, [pc, #324]	; (a4c <_GLOBAL__sub_I_automodeLED+0x178>)
     908:	4622      	mov	r2, r4
     90a:	4629      	mov	r1, r5
     90c:	f003 fbb4 	bl	4078 <__aeabi_atexit>
     910:	494f      	ldr	r1, [pc, #316]	; (a50 <_GLOBAL__sub_I_automodeLED+0x17c>)
     912:	4630      	mov	r0, r6
     914:	f000 f9e2 	bl	cdc <PwmIn::PwmIn(PinName)>
     918:	4630      	mov	r0, r6
     91a:	4e4e      	ldr	r6, [pc, #312]	; (a54 <_GLOBAL__sub_I_automodeLED+0x180>)
     91c:	4622      	mov	r2, r4
     91e:	4629      	mov	r1, r5
     920:	f003 fbaa 	bl	4078 <__aeabi_atexit>
     924:	494c      	ldr	r1, [pc, #304]	; (a58 <_GLOBAL__sub_I_automodeLED+0x184>)
     926:	4630      	mov	r0, r6
     928:	f000 f9d8 	bl	cdc <PwmIn::PwmIn(PinName)>
     92c:	4630      	mov	r0, r6
     92e:	4e4b      	ldr	r6, [pc, #300]	; (a5c <_GLOBAL__sub_I_automodeLED+0x188>)
     930:	4622      	mov	r2, r4
     932:	4629      	mov	r1, r5
     934:	f003 fba0 	bl	4078 <__aeabi_atexit>
     938:	4949      	ldr	r1, [pc, #292]	; (a60 <_GLOBAL__sub_I_automodeLED+0x18c>)
     93a:	4630      	mov	r0, r6
     93c:	f000 f9ce 	bl	cdc <PwmIn::PwmIn(PinName)>
     940:	4630      	mov	r0, r6
     942:	4e48      	ldr	r6, [pc, #288]	; (a64 <_GLOBAL__sub_I_automodeLED+0x190>)
     944:	4622      	mov	r2, r4
     946:	4629      	mov	r1, r5
     948:	f003 fb96 	bl	4078 <__aeabi_atexit>
     94c:	4946      	ldr	r1, [pc, #280]	; (a68 <_GLOBAL__sub_I_automodeLED+0x194>)
     94e:	4630      	mov	r0, r6
     950:	f000 f9c4 	bl	cdc <PwmIn::PwmIn(PinName)>
     954:	4630      	mov	r0, r6
     956:	4e45      	ldr	r6, [pc, #276]	; (a6c <_GLOBAL__sub_I_automodeLED+0x198>)
     958:	4622      	mov	r2, r4
     95a:	4629      	mov	r1, r5
     95c:	f003 fb8c 	bl	4078 <__aeabi_atexit>
     960:	4943      	ldr	r1, [pc, #268]	; (a70 <_GLOBAL__sub_I_automodeLED+0x19c>)
     962:	4630      	mov	r0, r6
     964:	f000 f9ba 	bl	cdc <PwmIn::PwmIn(PinName)>
     968:	4622      	mov	r2, r4
     96a:	4629      	mov	r1, r5
     96c:	4630      	mov	r0, r6
     96e:	f003 fb83 	bl	4078 <__aeabi_atexit>
     972:	4940      	ldr	r1, [pc, #256]	; (a74 <_GLOBAL__sub_I_automodeLED+0x1a0>)
     974:	4840      	ldr	r0, [pc, #256]	; (a78 <_GLOBAL__sub_I_automodeLED+0x1a4>)
     976:	f000 fa49 	bl	e0c <Servo::Servo(PinName)>
     97a:	4940      	ldr	r1, [pc, #256]	; (a7c <_GLOBAL__sub_I_automodeLED+0x1a8>)
     97c:	4840      	ldr	r0, [pc, #256]	; (a80 <_GLOBAL__sub_I_automodeLED+0x1ac>)
     97e:	f7ff fc4f 	bl	220 <mbed::DigitalOut::DigitalOut(PinName)>
     982:	4940      	ldr	r1, [pc, #256]	; (a84 <_GLOBAL__sub_I_automodeLED+0x1b0>)
     984:	4840      	ldr	r0, [pc, #256]	; (a88 <_GLOBAL__sub_I_automodeLED+0x1b4>)
     986:	f7ff fc4b 	bl	220 <mbed::DigitalOut::DigitalOut(PinName)>
     98a:	4d40      	ldr	r5, [pc, #256]	; (a8c <_GLOBAL__sub_I_automodeLED+0x1b8>)
     98c:	4940      	ldr	r1, [pc, #256]	; (a90 <_GLOBAL__sub_I_automodeLED+0x1bc>)
     98e:	4841      	ldr	r0, [pc, #260]	; (a94 <_GLOBAL__sub_I_automodeLED+0x1c0>)
     990:	f7ff fc46 	bl	220 <mbed::DigitalOut::DigitalOut(PinName)>
     994:	4b40      	ldr	r3, [pc, #256]	; (a98 <_GLOBAL__sub_I_automodeLED+0x1c4>)
     996:	4628      	mov	r0, r5
     998:	602b      	str	r3, [r5, #0]
     99a:	f7ff fbe3 	bl	164 <mbed::AnalogIn::lock()>
     99e:	493f      	ldr	r1, [pc, #252]	; (a9c <_GLOBAL__sub_I_automodeLED+0x1c8>)
     9a0:	1d28      	adds	r0, r5, #4
     9a2:	f002 f9dd 	bl	2d60 <analogin_init>
     9a6:	4628      	mov	r0, r5
     9a8:	f7ff fc1c 	bl	1e4 <mbed::AnalogIn::unlock()>
     9ac:	4628      	mov	r0, r5
     9ae:	4d3c      	ldr	r5, [pc, #240]	; (aa0 <_GLOBAL__sub_I_automodeLED+0x1cc>)
     9b0:	4622      	mov	r2, r4
     9b2:	493c      	ldr	r1, [pc, #240]	; (aa4 <_GLOBAL__sub_I_automodeLED+0x1d0>)
     9b4:	f003 fb60 	bl	4078 <__aeabi_atexit>
     9b8:	4628      	mov	r0, r5
     9ba:	2600      	movs	r6, #0
     9bc:	4b3a      	ldr	r3, [pc, #232]	; (aa8 <_GLOBAL__sub_I_automodeLED+0x1d4>)
     9be:	f840 3b08 	str.w	r3, [r0], #8
     9c2:	f003 fc69 	bl	4298 <rtos::Mutex::Mutex()>
     9c6:	1d28      	adds	r0, r5, #4
     9c8:	4938      	ldr	r1, [pc, #224]	; (aac <_GLOBAL__sub_I_automodeLED+0x1d8>)
     9ca:	f001 fee5 	bl	2798 <analogout_init>
     9ce:	4622      	mov	r2, r4
     9d0:	4937      	ldr	r1, [pc, #220]	; (ab0 <_GLOBAL__sub_I_automodeLED+0x1dc>)
     9d2:	4628      	mov	r0, r5
     9d4:	f003 fb50 	bl	4078 <__aeabi_atexit>
     9d8:	4d36      	ldr	r5, [pc, #216]	; (ab4 <_GLOBAL__sub_I_automodeLED+0x1e0>)
     9da:	4937      	ldr	r1, [pc, #220]	; (ab8 <_GLOBAL__sub_I_automodeLED+0x1e4>)
     9dc:	4837      	ldr	r0, [pc, #220]	; (abc <_GLOBAL__sub_I_automodeLED+0x1e8>)
     9de:	f7ff fc1f 	bl	220 <mbed::DigitalOut::DigitalOut(PinName)>
     9e2:	4937      	ldr	r1, [pc, #220]	; (ac0 <_GLOBAL__sub_I_automodeLED+0x1ec>)
     9e4:	4837      	ldr	r0, [pc, #220]	; (ac4 <_GLOBAL__sub_I_automodeLED+0x1f0>)
     9e6:	f7ff fc1b 	bl	220 <mbed::DigitalOut::DigitalOut(PinName)>
     9ea:	4628      	mov	r0, r5
     9ec:	f003 f928 	bl	3c40 <mbed::TimerEvent::TimerEvent()>
     9f0:	4b35      	ldr	r3, [pc, #212]	; (ac8 <_GLOBAL__sub_I_automodeLED+0x1f4>)
     9f2:	626e      	str	r6, [r5, #36]	; 0x24
     9f4:	602b      	str	r3, [r5, #0]
     9f6:	4628      	mov	r0, r5
     9f8:	4d34      	ldr	r5, [pc, #208]	; (acc <_GLOBAL__sub_I_automodeLED+0x1f8>)
     9fa:	4622      	mov	r2, r4
     9fc:	4934      	ldr	r1, [pc, #208]	; (ad0 <_GLOBAL__sub_I_automodeLED+0x1fc>)
     9fe:	f003 fb3b 	bl	4078 <__aeabi_atexit>
     a02:	4628      	mov	r0, r5
     a04:	f003 f91c 	bl	3c40 <mbed::TimerEvent::TimerEvent()>
     a08:	4b32      	ldr	r3, [pc, #200]	; (ad4 <_GLOBAL__sub_I_automodeLED+0x200>)
     a0a:	626e      	str	r6, [r5, #36]	; 0x24
     a0c:	602b      	str	r3, [r5, #0]
     a0e:	4622      	mov	r2, r4
     a10:	4628      	mov	r0, r5
     a12:	e8bd 4070 	ldmia.w	sp!, {r4, r5, r6, lr}
     a16:	4930      	ldr	r1, [pc, #192]	; (ad8 <_GLOBAL__sub_I_automodeLED+0x204>)
     a18:	f003 bb2e 	b.w	4078 <__aeabi_atexit>
     a1c:	2009c032 	.word	0x2009c032
     a20:	10000414 	.word	0x10000414
     a24:	2009c034 	.word	0x2009c034
     a28:	100004d4 	.word	0x100004d4
     a2c:	10000658 	.word	0x10000658
     a30:	2009c035 	.word	0x2009c035
     a34:	1000048c 	.word	0x1000048c
     a38:	2009c037 	.word	0x2009c037
     a3c:	1000030c 	.word	0x1000030c
     a40:	100000c8 	.word	0x100000c8
     a44:	00000add 	.word	0x00000add
     a48:	2009c004 	.word	0x2009c004
     a4c:	100003b4 	.word	0x100003b4
     a50:	2009c045 	.word	0x2009c045
     a54:	10000504 	.word	0x10000504
     a58:	2009c044 	.word	0x2009c044
     a5c:	100005cc 	.word	0x100005cc
     a60:	2009c043 	.word	0x2009c043
     a64:	10000564 	.word	0x10000564
     a68:	2009c042 	.word	0x2009c042
     a6c:	1000042c 	.word	0x1000042c
     a70:	2009c041 	.word	0x2009c041
     a74:	2009c040 	.word	0x2009c040
     a78:	100004bc 	.word	0x100004bc
     a7c:	2009c00b 	.word	0x2009c00b
     a80:	1000033c 	.word	0x1000033c
     a84:	2009c00a 	.word	0x2009c00a
     a88:	10000324 	.word	0x10000324
     a8c:	100005c4 	.word	0x100005c4
     a90:	2009c005 	.word	0x2009c005
     a94:	10000354 	.word	0x10000354
     a98:	0000708c 	.word	0x0000708c
     a9c:	2009c017 	.word	0x2009c017
     aa0:	10000394 	.word	0x10000394
     aa4:	00000139 	.word	0x00000139
     aa8:	000070a4 	.word	0x000070a4
     aac:	2009c01a 	.word	0x2009c01a
     ab0:	000001b9 	.word	0x000001b9
     ab4:	1000036c 	.word	0x1000036c
     ab8:	2009c03e 	.word	0x2009c03e
     abc:	100004a4 	.word	0x100004a4
     ac0:	2009c011 	.word	0x2009c011
     ac4:	100004ec 	.word	0x100004ec
     ac8:	000074c0 	.word	0x000074c0
     acc:	10000630 	.word	0x10000630
     ad0:	0000041d 	.word	0x0000041d
     ad4:	000075c0 	.word	0x000075c0
     ad8:	00000455 	.word	0x00000455

00000adc <PwmIn::~PwmIn()>:
     adc:	b510      	push	{r4, lr}
     ade:	4604      	mov	r4, r0
     ae0:	f002 ff9a 	bl	3a18 <mbed::InterruptIn::~InterruptIn()>
     ae4:	4620      	mov	r0, r4
     ae6:	bd10      	pop	{r4, pc}

00000ae8 <mbed::SerialBase::~SerialBase()>:
     ae8:	b570      	push	{r4, r5, r6, lr}
     aea:	4605      	mov	r5, r0
     aec:	4b07      	ldr	r3, [pc, #28]	; (b0c <mbed::SerialBase::~SerialBase()+0x24>)
     aee:	4606      	mov	r6, r0
     af0:	f845 3b0c 	str.w	r3, [r5], #12
     af4:	b145      	cbz	r5, b08 <mbed::SerialBase::~SerialBase()+0x20>
     af6:	f100 042c 	add.w	r4, r0, #44	; 0x2c
     afa:	42ac      	cmp	r4, r5
     afc:	d004      	beq.n	b08 <mbed::SerialBase::~SerialBase()+0x20>
     afe:	3c10      	subs	r4, #16
     b00:	4620      	mov	r0, r4
     b02:	f7ff fc83 	bl	40c <mbed::Callback<void ()>::~Callback()>
     b06:	e7f8      	b.n	afa <mbed::SerialBase::~SerialBase()+0x12>
     b08:	4630      	mov	r0, r6
     b0a:	bd70      	pop	{r4, r5, r6, pc}
     b0c:	00007594 	.word	0x00007594

00000b10 <mbed::SerialBase::~SerialBase()>:
     b10:	b510      	push	{r4, lr}
     b12:	4604      	mov	r4, r0
     b14:	f7ff ffe8 	bl	ae8 <mbed::SerialBase::~SerialBase()>
     b18:	4620      	mov	r0, r4
     b1a:	f003 fad6 	bl	40ca <operator delete(void*)>
     b1e:	4620      	mov	r0, r4
     b20:	bd10      	pop	{r4, pc}
	...

00000b24 <mbed::Serial::~Serial()>:
     b24:	b510      	push	{r4, lr}
     b26:	4604      	mov	r4, r0
     b28:	4b08      	ldr	r3, [pc, #32]	; (b4c <mbed::Serial::~Serial()+0x28>)
     b2a:	3044      	adds	r0, #68	; 0x44
     b2c:	f840 3c44 	str.w	r3, [r0, #-68]
     b30:	3320      	adds	r3, #32
     b32:	f840 3c14 	str.w	r3, [r0, #-20]
     b36:	f003 fbcd 	bl	42d4 <rtos::Mutex::~Mutex()>
     b3a:	f104 0030 	add.w	r0, r4, #48	; 0x30
     b3e:	f002 ff45 	bl	39cc <mbed::Stream::~Stream()>
     b42:	4620      	mov	r0, r4
     b44:	f7ff ffd0 	bl	ae8 <mbed::SerialBase::~SerialBase()>
     b48:	4620      	mov	r0, r4
     b4a:	bd10      	pop	{r4, pc}
     b4c:	00007450 	.word	0x00007450

00000b50 <non-virtual thunk to mbed::Serial::~Serial()>:
     b50:	f1a0 0030 	sub.w	r0, r0, #48	; 0x30
     b54:	e7e6      	b.n	b24 <mbed::Serial::~Serial()>
     b56:	bf00      	nop

00000b58 <mbed::Serial::~Serial()>:
     b58:	b510      	push	{r4, lr}
     b5a:	4604      	mov	r4, r0
     b5c:	f7ff ffe2 	bl	b24 <mbed::Serial::~Serial()>
     b60:	4620      	mov	r0, r4
     b62:	f003 fab2 	bl	40ca <operator delete(void*)>
     b66:	4620      	mov	r0, r4
     b68:	bd10      	pop	{r4, pc}

00000b6a <non-virtual thunk to mbed::Serial::~Serial()>:
     b6a:	f1a0 0030 	sub.w	r0, r0, #48	; 0x30
     b6e:	e7f3      	b.n	b58 <mbed::Serial::~Serial()>

00000b70 <_GLOBAL__sub_I_pc>:
     b70:	f44f 5316 	mov.w	r3, #9600	; 0x2580
     b74:	e92d 41f3 	stmdb	sp!, {r0, r1, r4, r5, r6, r7, r8, lr}
     b78:	2600      	movs	r6, #0
     b7a:	4d2b      	ldr	r5, [pc, #172]	; (c28 <Stack_Size+0x28>)
     b7c:	4c2b      	ldr	r4, [pc, #172]	; (c2c <Stack_Size+0x2c>)
     b7e:	9300      	str	r3, [sp, #0]
     b80:	4a2b      	ldr	r2, [pc, #172]	; (c30 <Stack_Size+0x30>)
     b82:	2300      	movs	r3, #0
     b84:	492b      	ldr	r1, [pc, #172]	; (c34 <Stack_Size+0x34>)
     b86:	4628      	mov	r0, r5
     b88:	f002 fd30 	bl	35ec <mbed::Serial::Serial(PinName, PinName, char const*, int)>
     b8c:	4628      	mov	r0, r5
     b8e:	4d2a      	ldr	r5, [pc, #168]	; (c38 <Stack_Size+0x38>)
     b90:	4622      	mov	r2, r4
     b92:	492a      	ldr	r1, [pc, #168]	; (c3c <Stack_Size+0x3c>)
     b94:	f8df 80e4 	ldr.w	r8, [pc, #228]	; c7c <Stack_Size+0x7c>
     b98:	4f29      	ldr	r7, [pc, #164]	; (c40 <Stack_Size+0x40>)
     b9a:	f003 fa6d 	bl	4078 <__aeabi_atexit>
     b9e:	4628      	mov	r0, r5
     ba0:	f003 f84e 	bl	3c40 <mbed::TimerEvent::TimerEvent()>
     ba4:	4622      	mov	r2, r4
     ba6:	4639      	mov	r1, r7
     ba8:	f8c5 8000 	str.w	r8, [r5]
     bac:	626e      	str	r6, [r5, #36]	; 0x24
     bae:	4628      	mov	r0, r5
     bb0:	4d24      	ldr	r5, [pc, #144]	; (c44 <Stack_Size+0x44>)
     bb2:	f003 fa61 	bl	4078 <__aeabi_atexit>
     bb6:	4b24      	ldr	r3, [pc, #144]	; (c48 <Stack_Size+0x48>)
     bb8:	4628      	mov	r0, r5
     bba:	602b      	str	r3, [r5, #0]
     bbc:	f7ff fad2 	bl	164 <mbed::AnalogIn::lock()>
     bc0:	4922      	ldr	r1, [pc, #136]	; (c4c <Stack_Size+0x4c>)
     bc2:	1d28      	adds	r0, r5, #4
     bc4:	f002 f8cc 	bl	2d60 <analogin_init>
     bc8:	4628      	mov	r0, r5
     bca:	f7ff fb0b 	bl	1e4 <mbed::AnalogIn::unlock()>
     bce:	4622      	mov	r2, r4
     bd0:	491f      	ldr	r1, [pc, #124]	; (c50 <Stack_Size+0x50>)
     bd2:	4628      	mov	r0, r5
     bd4:	f003 fa50 	bl	4078 <__aeabi_atexit>
     bd8:	491e      	ldr	r1, [pc, #120]	; (c54 <Stack_Size+0x54>)
     bda:	481f      	ldr	r0, [pc, #124]	; (c58 <Stack_Size+0x58>)
     bdc:	f7ff fb20 	bl	220 <mbed::DigitalOut::DigitalOut(PinName)>
     be0:	4d1e      	ldr	r5, [pc, #120]	; (c5c <Stack_Size+0x5c>)
     be2:	491f      	ldr	r1, [pc, #124]	; (c60 <Stack_Size+0x60>)
     be4:	481f      	ldr	r0, [pc, #124]	; (c64 <Stack_Size+0x64>)
     be6:	f7ff fb1b 	bl	220 <mbed::DigitalOut::DigitalOut(PinName)>
     bea:	491f      	ldr	r1, [pc, #124]	; (c68 <Stack_Size+0x68>)
     bec:	481f      	ldr	r0, [pc, #124]	; (c6c <Stack_Size+0x6c>)
     bee:	f7ff fb17 	bl	220 <mbed::DigitalOut::DigitalOut(PinName)>
     bf2:	4628      	mov	r0, r5
     bf4:	f003 f824 	bl	3c40 <mbed::TimerEvent::TimerEvent()>
     bf8:	f8c5 8000 	str.w	r8, [r5]
     bfc:	626e      	str	r6, [r5, #36]	; 0x24
     bfe:	4628      	mov	r0, r5
     c00:	4d1b      	ldr	r5, [pc, #108]	; (c70 <Stack_Size+0x70>)
     c02:	4622      	mov	r2, r4
     c04:	4639      	mov	r1, r7
     c06:	f003 fa37 	bl	4078 <__aeabi_atexit>
     c0a:	4628      	mov	r0, r5
     c0c:	f003 f818 	bl	3c40 <mbed::TimerEvent::TimerEvent()>
     c10:	4622      	mov	r2, r4
     c12:	4628      	mov	r0, r5
     c14:	4b17      	ldr	r3, [pc, #92]	; (c74 <Stack_Size+0x74>)
     c16:	4918      	ldr	r1, [pc, #96]	; (c78 <Stack_Size+0x78>)
     c18:	626e      	str	r6, [r5, #36]	; 0x24
     c1a:	602b      	str	r3, [r5, #0]
     c1c:	b002      	add	sp, #8
     c1e:	e8bd 41f0 	ldmia.w	sp!, {r4, r5, r6, r7, r8, lr}
     c22:	f003 ba29 	b.w	4078 <__aeabi_atexit>
     c26:	bf00      	nop
     c28:	10000728 	.word	0x10000728
     c2c:	100000c8 	.word	0x100000c8
     c30:	2009c003 	.word	0x2009c003
     c34:	2009c002 	.word	0x2009c002
     c38:	1000078c 	.word	0x1000078c
     c3c:	00000b25 	.word	0x00000b25
     c40:	0000041d 	.word	0x0000041d
     c44:	10000784 	.word	0x10000784
     c48:	0000708c 	.word	0x0000708c
     c4c:	2009c03f 	.word	0x2009c03f
     c50:	00000139 	.word	0x00000139
     c54:	2009c00b 	.word	0x2009c00b
     c58:	100006d0 	.word	0x100006d0
     c5c:	10000700 	.word	0x10000700
     c60:	2009c00a 	.word	0x2009c00a
     c64:	100006b8 	.word	0x100006b8
     c68:	2009c005 	.word	0x2009c005
     c6c:	100006e8 	.word	0x100006e8
     c70:	100007b4 	.word	0x100007b4
     c74:	000075c0 	.word	0x000075c0
     c78:	00000455 	.word	0x00000455
     c7c:	000074c0 	.word	0x000074c0

00000c80 <void mbed::Callback<void ()>::function_move<mbed::Callback<void ()>::method_context<PwmIn, void (PwmIn::*)()> >(void*, void const*)>:
     c80:	4603      	mov	r3, r0
     c82:	b110      	cbz	r0, c8a <void mbed::Callback<void ()>::function_move<mbed::Callback<void ()>::method_context<PwmIn, void (PwmIn::*)()> >(void*, void const*)+0xa>
     c84:	c907      	ldmia	r1, {r0, r1, r2}
     c86:	e883 0007 	stmia.w	r3, {r0, r1, r2}
     c8a:	4770      	bx	lr

00000c8c <void mbed::Callback<void ()>::function_dtor<mbed::Callback<void ()>::method_context<PwmIn, void (PwmIn::*)()> >(void*)>:
     c8c:	4770      	bx	lr

00000c8e <void mbed::Callback<void ()>::function_call<mbed::Callback<void ()>::method_context<PwmIn, void (PwmIn::*)()> >(void const*)>:
     c8e:	6842      	ldr	r2, [r0, #4]
     c90:	6881      	ldr	r1, [r0, #8]
     c92:	f012 0f01 	tst.w	r2, #1
     c96:	ea4f 0262 	mov.w	r2, r2, asr #1
     c9a:	6803      	ldr	r3, [r0, #0]
     c9c:	bf1c      	itt	ne
     c9e:	5888      	ldrne	r0, [r1, r2]
     ca0:	58c3      	ldrne	r3, [r0, r3]
     ca2:	1888      	adds	r0, r1, r2
     ca4:	4718      	bx	r3

00000ca6 <PwmIn::fall()>:
     ca6:	b510      	push	{r4, lr}
     ca8:	4604      	mov	r4, r0
     caa:	3048      	adds	r0, #72	; 0x48
     cac:	f002 fd28 	bl	3700 <mbed::Timer::read()>
     cb0:	65a0      	str	r0, [r4, #88]	; 0x58
     cb2:	bd10      	pop	{r4, pc}

00000cb4 <PwmIn::rise()>:
     cb4:	b538      	push	{r3, r4, r5, lr}
     cb6:	f100 0448 	add.w	r4, r0, #72	; 0x48
     cba:	4605      	mov	r5, r0
     cbc:	4620      	mov	r0, r4
     cbe:	f002 fd1f 	bl	3700 <mbed::Timer::read()>
     cc2:	65e8      	str	r0, [r5, #92]	; 0x5c
     cc4:	4620      	mov	r0, r4
     cc6:	e8bd 4038 	ldmia.w	sp!, {r3, r4, r5, lr}
     cca:	f002 bd25 	b.w	3718 <mbed::Timer::reset()>

00000cce <PwmIn::dutycycle()>:
     cce:	b508      	push	{r3, lr}
     cd0:	6dc1      	ldr	r1, [r0, #92]	; 0x5c
     cd2:	6d80      	ldr	r0, [r0, #88]	; 0x58
     cd4:	f004 fa20 	bl	5118 <__aeabi_fdiv>
     cd8:	bd08      	pop	{r3, pc}
	...

00000cdc <PwmIn::PwmIn(PinName)>:
     cdc:	b5f0      	push	{r4, r5, r6, r7, lr}
     cde:	4604      	mov	r4, r0
     ce0:	2700      	movs	r7, #0
     ce2:	b085      	sub	sp, #20
     ce4:	f104 0548 	add.w	r5, r4, #72	; 0x48
     ce8:	f002 feb4 	bl	3a54 <mbed::InterruptIn::InterruptIn(PinName)>
     cec:	4628      	mov	r0, r5
     cee:	f002 fd21 	bl	3734 <mbed::Timer::Timer()>
     cf2:	4e15      	ldr	r6, [pc, #84]	; (d48 <PwmIn::PwmIn(PinName)+0x6c>)
     cf4:	f000 f9e8 	bl	10c8 <core_util_critical_section_enter>
     cf8:	4b14      	ldr	r3, [pc, #80]	; (d4c <PwmIn::PwmIn(PinName)+0x70>)
     cfa:	4669      	mov	r1, sp
     cfc:	4620      	mov	r0, r4
     cfe:	9300      	str	r3, [sp, #0]
     d00:	9701      	str	r7, [sp, #4]
     d02:	9402      	str	r4, [sp, #8]
     d04:	9603      	str	r6, [sp, #12]
     d06:	f002 fee9 	bl	3adc <mbed::InterruptIn::rise(mbed::Callback<void ()>)>
     d0a:	4668      	mov	r0, sp
     d0c:	f7ff fb7e 	bl	40c <mbed::Callback<void ()>::~Callback()>
     d10:	f000 f9f0 	bl	10f4 <core_util_critical_section_exit>
     d14:	f000 f9d8 	bl	10c8 <core_util_critical_section_enter>
     d18:	4b0d      	ldr	r3, [pc, #52]	; (d50 <PwmIn::PwmIn(PinName)+0x74>)
     d1a:	4669      	mov	r1, sp
     d1c:	4620      	mov	r0, r4
     d1e:	e88d 0088 	stmia.w	sp, {r3, r7}
     d22:	9402      	str	r4, [sp, #8]
     d24:	9603      	str	r6, [sp, #12]
     d26:	f002 feff 	bl	3b28 <mbed::InterruptIn::fall(mbed::Callback<void ()>)>
     d2a:	4668      	mov	r0, sp
     d2c:	f7ff fb6e 	bl	40c <mbed::Callback<void ()>::~Callback()>
     d30:	f000 f9e0 	bl	10f4 <core_util_critical_section_exit>
     d34:	2300      	movs	r3, #0
     d36:	4628      	mov	r0, r5
     d38:	65e3      	str	r3, [r4, #92]	; 0x5c
     d3a:	65a3      	str	r3, [r4, #88]	; 0x58
     d3c:	f002 fcb3 	bl	36a6 <mbed::Timer::start()>
     d40:	4620      	mov	r0, r4
     d42:	b005      	add	sp, #20
     d44:	bdf0      	pop	{r4, r5, r6, r7, pc}
     d46:	bf00      	nop
     d48:	000070e0 	.word	0x000070e0
     d4c:	00000cb5 	.word	0x00000cb5
     d50:	00000ca7 	.word	0x00000ca7
     d54:	00000000 	.word	0x00000000

00000d58 <Servo::write(float)>:
     d58:	e92d 43f8 	stmdb	sp!, {r3, r4, r5, r6, r7, r8, r9, lr}
     d5c:	6886      	ldr	r6, [r0, #8]
     d5e:	4607      	mov	r7, r0
     d60:	4630      	mov	r0, r6
     d62:	460c      	mov	r4, r1
     d64:	f003 fcd8 	bl	4718 <__aeabi_f2d>
     d68:	4602      	mov	r2, r0
     d6a:	460b      	mov	r3, r1
     d6c:	f003 fb76 	bl	445c <__adddf3>
     d70:	4680      	mov	r8, r0
     d72:	4620      	mov	r0, r4
     d74:	4689      	mov	r9, r1
     d76:	f003 fccf 	bl	4718 <__aeabi_f2d>
     d7a:	2200      	movs	r2, #0
     d7c:	4b22      	ldr	r3, [pc, #136]	; (e08 <Servo::write(float)+0xb0>)
     d7e:	f003 fb6b 	bl	4458 <__aeabi_dsub>
     d82:	4602      	mov	r2, r0
     d84:	460b      	mov	r3, r1
     d86:	4640      	mov	r0, r8
     d88:	4649      	mov	r1, r9
     d8a:	f003 fd19 	bl	47c0 <__aeabi_dmul>
     d8e:	f003 ffb1 	bl	4cf4 <__aeabi_d2f>
     d92:	f106 4500 	add.w	r5, r6, #2147483648	; 0x80000000
     d96:	4629      	mov	r1, r5
     d98:	4680      	mov	r8, r0
     d9a:	f004 faa7 	bl	52ec <__aeabi_fcmplt>
     d9e:	b928      	cbnz	r0, dac <Servo::write(float)+0x54>
     da0:	4641      	mov	r1, r8
     da2:	4630      	mov	r0, r6
     da4:	f004 faa2 	bl	52ec <__aeabi_fcmplt>
     da8:	bb00      	cbnz	r0, dec <Servo::write(float)+0x94>
     daa:	4645      	mov	r5, r8
     dac:	f000 f98c 	bl	10c8 <core_util_critical_section_enter>
     db0:	4628      	mov	r0, r5
     db2:	f003 fcb1 	bl	4718 <__aeabi_f2d>
     db6:	a312      	add	r3, pc, #72	; (adr r3, e00 <Servo::write(float)+0xa8>)
     db8:	e9d3 2300 	ldrd	r2, r3, [r3]
     dbc:	f003 fb4e 	bl	445c <__adddf3>
     dc0:	f003 ff98 	bl	4cf4 <__aeabi_d2f>
     dc4:	4601      	mov	r1, r0
     dc6:	4638      	mov	r0, r7
     dc8:	f001 ff86 	bl	2cd8 <pwmout_pulsewidth>
     dcc:	f000 f992 	bl	10f4 <core_util_critical_section_exit>
     dd0:	2100      	movs	r1, #0
     dd2:	4620      	mov	r0, r4
     dd4:	f004 fa8a 	bl	52ec <__aeabi_fcmplt>
     dd8:	b950      	cbnz	r0, df0 <Servo::write(float)+0x98>
     dda:	f04f 517e 	mov.w	r1, #1065353216	; 0x3f800000
     dde:	4620      	mov	r0, r4
     de0:	f004 faa2 	bl	5328 <__aeabi_fcmpgt>
     de4:	b930      	cbnz	r0, df4 <Servo::write(float)+0x9c>
     de6:	613c      	str	r4, [r7, #16]
     de8:	e8bd 83f8 	ldmia.w	sp!, {r3, r4, r5, r6, r7, r8, r9, pc}
     dec:	4635      	mov	r5, r6
     dee:	e7dd      	b.n	dac <Servo::write(float)+0x54>
     df0:	2400      	movs	r4, #0
     df2:	e7f8      	b.n	de6 <Servo::write(float)+0x8e>
     df4:	f04f 547e 	mov.w	r4, #1065353216	; 0x3f800000
     df8:	e7f5      	b.n	de6 <Servo::write(float)+0x8e>
     dfa:	bf00      	nop
     dfc:	f3af 8000 	nop.w
     e00:	bc6a7efa 	.word	0xbc6a7efa
     e04:	3f589374 	.word	0x3f589374
     e08:	3fe00000 	.word	0x3fe00000

00000e0c <Servo::Servo(PinName)>:
     e0c:	b538      	push	{r3, r4, r5, lr}
     e0e:	4604      	mov	r4, r0
     e10:	460d      	mov	r5, r1
     e12:	f000 f959 	bl	10c8 <core_util_critical_section_enter>
     e16:	4629      	mov	r1, r5
     e18:	4620      	mov	r0, r4
     e1a:	f001 fefd 	bl	2c18 <pwmout_init>
     e1e:	f000 f969 	bl	10f4 <core_util_critical_section_exit>
     e22:	4b05      	ldr	r3, [pc, #20]	; (e38 <Servo::Servo(PinName)+0x2c>)
     e24:	4620      	mov	r0, r4
     e26:	60a3      	str	r3, [r4, #8]
     e28:	4b04      	ldr	r3, [pc, #16]	; (e3c <Servo::Servo(PinName)+0x30>)
     e2a:	f04f 517c 	mov.w	r1, #1056964608	; 0x3f000000
     e2e:	60e3      	str	r3, [r4, #12]
     e30:	f7ff ff92 	bl	d58 <Servo::write(float)>
     e34:	4620      	mov	r0, r4
     e36:	bd38      	pop	{r3, r4, r5, pc}
     e38:	3a03126f 	.word	0x3a03126f
     e3c:	42340000 	.word	0x42340000

00000e40 <Servo::calibrate(float, float)>:
     e40:	6081      	str	r1, [r0, #8]
     e42:	60c2      	str	r2, [r0, #12]
     e44:	4770      	bx	lr

00000e46 <Servo::operator=(float)>:
     e46:	b510      	push	{r4, lr}
     e48:	4604      	mov	r4, r0
     e4a:	f7ff ff85 	bl	d58 <Servo::write(float)>
     e4e:	4620      	mov	r0, r4
     e50:	bd10      	pop	{r4, pc}
	...

00000e54 <_start>:
     e54:	4807      	ldr	r0, [pc, #28]	; (e74 <_start+0x20>)
     e56:	4a08      	ldr	r2, [pc, #32]	; (e78 <_start+0x24>)
     e58:	b508      	push	{r3, lr}
     e5a:	1a12      	subs	r2, r2, r0
     e5c:	2100      	movs	r1, #0
     e5e:	f004 fe48 	bl	5af2 <memset>
     e62:	f003 f8c2 	bl	3fea <software_init_hook>
     e66:	f004 fd79 	bl	595c <__libc_init_array>
     e6a:	f003 f8c5 	bl	3ff8 <__wrap_main>
     e6e:	f003 f905 	bl	407c <__wrap_exit>
     e72:	bf00      	nop
     e74:	100002f0 	.word	0x100002f0
     e78:	100025f4 	.word	0x100025f4

00000e7c <__wrap__isatty>:
     e7c:	2802      	cmp	r0, #2
     e7e:	dd01      	ble.n	e84 <__wrap__isatty+0x8>
     e80:	f003 b866 	b.w	3f50 <_isatty>
     e84:	2001      	movs	r0, #1
     e86:	4770      	bx	lr

00000e88 <abort>:
     e88:	b508      	push	{r3, lr}
     e8a:	2001      	movs	r0, #1
     e8c:	f003 f8f6 	bl	407c <__wrap_exit>

00000e90 <__cxa_pure_virtual>:
     e90:	b508      	push	{r3, lr}
     e92:	f7ff fff9 	bl	e88 <abort>

00000e96 <_gpio_init_in>:
     e96:	b570      	push	{r4, r5, r6, lr}
     e98:	460e      	mov	r6, r1
     e9a:	4604      	mov	r4, r0
     e9c:	4615      	mov	r5, r2
     e9e:	f001 fde5 	bl	2a6c <gpio_init>
     ea2:	3601      	adds	r6, #1
     ea4:	d009      	beq.n	eba <_gpio_init_in+0x24>
     ea6:	4620      	mov	r0, r4
     ea8:	2100      	movs	r1, #0
     eaa:	f001 fdf9 	bl	2aa0 <gpio_dir>
     eae:	4629      	mov	r1, r5
     eb0:	4620      	mov	r0, r4
     eb2:	e8bd 4070 	ldmia.w	sp!, {r4, r5, r6, lr}
     eb6:	f001 bdf0 	b.w	2a9a <gpio_mode>
     eba:	bd70      	pop	{r4, r5, r6, pc}

00000ebc <_gpio_init_out.part.1>:
     ebc:	b538      	push	{r3, r4, r5, lr}
     ebe:	4604      	mov	r4, r0
     ec0:	460d      	mov	r5, r1
     ec2:	6843      	ldr	r3, [r0, #4]
     ec4:	b15a      	cbz	r2, ede <_gpio_init_out.part.1+0x22>
     ec6:	68c2      	ldr	r2, [r0, #12]
     ec8:	4620      	mov	r0, r4
     eca:	6013      	str	r3, [r2, #0]
     ecc:	2101      	movs	r1, #1
     ece:	f001 fde7 	bl	2aa0 <gpio_dir>
     ed2:	4629      	mov	r1, r5
     ed4:	4620      	mov	r0, r4
     ed6:	e8bd 4038 	ldmia.w	sp!, {r3, r4, r5, lr}
     eda:	f001 bdde 	b.w	2a9a <gpio_mode>
     ede:	6902      	ldr	r2, [r0, #16]
     ee0:	e7f2      	b.n	ec8 <_gpio_init_out.part.1+0xc>

00000ee2 <gpio_init_in>:
     ee2:	2203      	movs	r2, #3
     ee4:	f7ff bfd7 	b.w	e96 <_gpio_init_in>

00000ee8 <gpio_init_out_ex>:
     ee8:	b570      	push	{r4, r5, r6, lr}
     eea:	460e      	mov	r6, r1
     eec:	4604      	mov	r4, r0
     eee:	4615      	mov	r5, r2
     ef0:	f001 fdbc 	bl	2a6c <gpio_init>
     ef4:	3601      	adds	r6, #1
     ef6:	d006      	beq.n	f06 <gpio_init_out_ex+0x1e>
     ef8:	462a      	mov	r2, r5
     efa:	4620      	mov	r0, r4
     efc:	e8bd 4070 	ldmia.w	sp!, {r4, r5, r6, lr}
     f00:	2102      	movs	r1, #2
     f02:	f7ff bfdb 	b.w	ebc <_gpio_init_out.part.1>
     f06:	bd70      	pop	{r4, r5, r6, pc}

00000f08 <gpio_init_out>:
     f08:	2200      	movs	r2, #0
     f0a:	f7ff bfed 	b.w	ee8 <gpio_init_out_ex>
	...

00000f10 <get_us_ticker_data>:
     f10:	4800      	ldr	r0, [pc, #0]	; (f14 <get_us_ticker_data+0x4>)
     f12:	4770      	bx	lr
     f14:	000070ec 	.word	0x000070ec

00000f18 <us_ticker_irq_handler>:
     f18:	4801      	ldr	r0, [pc, #4]	; (f20 <us_ticker_irq_handler+0x8>)
     f1a:	f000 b80c 	b.w	f36 <ticker_irq_handler>
     f1e:	bf00      	nop
     f20:	000070ec 	.word	0x000070ec

00000f24 <ticker_set_handler>:
     f24:	b538      	push	{r3, r4, r5, lr}
     f26:	4604      	mov	r4, r0
     f28:	460d      	mov	r5, r1
     f2a:	6803      	ldr	r3, [r0, #0]
     f2c:	681b      	ldr	r3, [r3, #0]
     f2e:	4798      	blx	r3
     f30:	6863      	ldr	r3, [r4, #4]
     f32:	601d      	str	r5, [r3, #0]
     f34:	bd38      	pop	{r3, r4, r5, pc}

00000f36 <ticker_irq_handler>:
     f36:	6803      	ldr	r3, [r0, #0]
     f38:	b570      	push	{r4, r5, r6, lr}
     f3a:	68db      	ldr	r3, [r3, #12]
     f3c:	4604      	mov	r4, r0
     f3e:	4798      	blx	r3
     f40:	6863      	ldr	r3, [r4, #4]
     f42:	685a      	ldr	r2, [r3, #4]
     f44:	6823      	ldr	r3, [r4, #0]
     f46:	b91a      	cbnz	r2, f50 <ticker_irq_handler+0x1a>
     f48:	689b      	ldr	r3, [r3, #8]
     f4a:	e8bd 4070 	ldmia.w	sp!, {r4, r5, r6, lr}
     f4e:	4718      	bx	r3
     f50:	685b      	ldr	r3, [r3, #4]
     f52:	6815      	ldr	r5, [r2, #0]
     f54:	4798      	blx	r3
     f56:	6863      	ldr	r3, [r4, #4]
     f58:	1a28      	subs	r0, r5, r0
     f5a:	2800      	cmp	r0, #0
     f5c:	685a      	ldr	r2, [r3, #4]
     f5e:	dc07      	bgt.n	f70 <ticker_irq_handler+0x3a>
     f60:	6891      	ldr	r1, [r2, #8]
     f62:	6059      	str	r1, [r3, #4]
     f64:	681b      	ldr	r3, [r3, #0]
     f66:	2b00      	cmp	r3, #0
     f68:	d0ea      	beq.n	f40 <ticker_irq_handler+0xa>
     f6a:	6850      	ldr	r0, [r2, #4]
     f6c:	4798      	blx	r3
     f6e:	e7e7      	b.n	f40 <ticker_irq_handler+0xa>
     f70:	6823      	ldr	r3, [r4, #0]
     f72:	6810      	ldr	r0, [r2, #0]
     f74:	691b      	ldr	r3, [r3, #16]
     f76:	e8bd 4070 	ldmia.w	sp!, {r4, r5, r6, lr}
     f7a:	4718      	bx	r3

00000f7c <ticker_insert_event>:
     f7c:	b5f8      	push	{r3, r4, r5, r6, r7, lr}
     f7e:	4606      	mov	r6, r0
     f80:	460c      	mov	r4, r1
     f82:	461f      	mov	r7, r3
     f84:	4615      	mov	r5, r2
     f86:	f000 f89f 	bl	10c8 <core_util_critical_section_enter>
     f8a:	2100      	movs	r1, #0
     f8c:	6870      	ldr	r0, [r6, #4]
     f8e:	e884 00a0 	stmia.w	r4, {r5, r7}
     f92:	6843      	ldr	r3, [r0, #4]
     f94:	b953      	cbnz	r3, fac <ticker_insert_event+0x30>
     f96:	60a3      	str	r3, [r4, #8]
     f98:	b979      	cbnz	r1, fba <ticker_insert_event+0x3e>
     f9a:	6833      	ldr	r3, [r6, #0]
     f9c:	6044      	str	r4, [r0, #4]
     f9e:	691b      	ldr	r3, [r3, #16]
     fa0:	4628      	mov	r0, r5
     fa2:	4798      	blx	r3
     fa4:	e8bd 40f8 	ldmia.w	sp!, {r3, r4, r5, r6, r7, lr}
     fa8:	f000 b8a4 	b.w	10f4 <core_util_critical_section_exit>
     fac:	681a      	ldr	r2, [r3, #0]
     fae:	1aaa      	subs	r2, r5, r2
     fb0:	2a00      	cmp	r2, #0
     fb2:	dbf0      	blt.n	f96 <ticker_insert_event+0x1a>
     fb4:	4619      	mov	r1, r3
     fb6:	689b      	ldr	r3, [r3, #8]
     fb8:	e7ec      	b.n	f94 <ticker_insert_event+0x18>
     fba:	608c      	str	r4, [r1, #8]
     fbc:	e7f2      	b.n	fa4 <ticker_insert_event+0x28>

00000fbe <ticker_remove_event>:
     fbe:	b538      	push	{r3, r4, r5, lr}
     fc0:	4605      	mov	r5, r0
     fc2:	460c      	mov	r4, r1
     fc4:	f000 f880 	bl	10c8 <core_util_critical_section_enter>
     fc8:	686a      	ldr	r2, [r5, #4]
     fca:	6853      	ldr	r3, [r2, #4]
     fcc:	42a3      	cmp	r3, r4
     fce:	d10e      	bne.n	fee <ticker_remove_event+0x30>
     fd0:	689b      	ldr	r3, [r3, #8]
     fd2:	6053      	str	r3, [r2, #4]
     fd4:	682a      	ldr	r2, [r5, #0]
     fd6:	b92b      	cbnz	r3, fe4 <ticker_remove_event+0x26>
     fd8:	6893      	ldr	r3, [r2, #8]
     fda:	4798      	blx	r3
     fdc:	e8bd 4038 	ldmia.w	sp!, {r3, r4, r5, lr}
     fe0:	f000 b888 	b.w	10f4 <core_util_critical_section_exit>
     fe4:	6912      	ldr	r2, [r2, #16]
     fe6:	6818      	ldr	r0, [r3, #0]
     fe8:	4790      	blx	r2
     fea:	e7f7      	b.n	fdc <ticker_remove_event+0x1e>
     fec:	4613      	mov	r3, r2
     fee:	2b00      	cmp	r3, #0
     ff0:	d0f4      	beq.n	fdc <ticker_remove_event+0x1e>
     ff2:	689a      	ldr	r2, [r3, #8]
     ff4:	4294      	cmp	r4, r2
     ff6:	d1f9      	bne.n	fec <ticker_remove_event+0x2e>
     ff8:	68a2      	ldr	r2, [r4, #8]
     ffa:	609a      	str	r2, [r3, #8]
     ffc:	e7ee      	b.n	fdc <ticker_remove_event+0x1e>

00000ffe <ticker_read>:
     ffe:	6803      	ldr	r3, [r0, #0]
    1000:	685b      	ldr	r3, [r3, #4]
    1002:	4718      	bx	r3

00001004 <pinmap_pinout>:
    1004:	b510      	push	{r4, lr}
    1006:	4604      	mov	r4, r0
    1008:	3001      	adds	r0, #1
    100a:	d10d      	bne.n	1028 <pinmap_pinout+0x24>
    100c:	bd10      	pop	{r4, pc}
    100e:	429c      	cmp	r4, r3
    1010:	d109      	bne.n	1026 <pinmap_pinout+0x22>
    1012:	4620      	mov	r0, r4
    1014:	6889      	ldr	r1, [r1, #8]
    1016:	f001 feeb 	bl	2df0 <pin_function>
    101a:	4620      	mov	r0, r4
    101c:	e8bd 4010 	ldmia.w	sp!, {r4, lr}
    1020:	2102      	movs	r1, #2
    1022:	f001 befe 	b.w	2e22 <pin_mode>
    1026:	310c      	adds	r1, #12
    1028:	680b      	ldr	r3, [r1, #0]
    102a:	1c5a      	adds	r2, r3, #1
    102c:	d1ef      	bne.n	100e <pinmap_pinout+0xa>
    102e:	4802      	ldr	r0, [pc, #8]	; (1038 <pinmap_pinout+0x34>)
    1030:	e8bd 4010 	ldmia.w	sp!, {r4, lr}
    1034:	f000 b891 	b.w	115a <error>
    1038:	00007139 	.word	0x00007139

0000103c <pinmap_merge>:
    103c:	4288      	cmp	r0, r1
    103e:	b508      	push	{r3, lr}
    1040:	d008      	beq.n	1054 <pinmap_merge+0x18>
    1042:	1c43      	adds	r3, r0, #1
    1044:	d006      	beq.n	1054 <pinmap_merge+0x18>
    1046:	3101      	adds	r1, #1
    1048:	d006      	beq.n	1058 <pinmap_merge+0x1c>
    104a:	4804      	ldr	r0, [pc, #16]	; (105c <pinmap_merge+0x20>)
    104c:	f000 f885 	bl	115a <error>
    1050:	f04f 31ff 	mov.w	r1, #4294967295	; 0xffffffff
    1054:	4608      	mov	r0, r1
    1056:	bd08      	pop	{r3, pc}
    1058:	4601      	mov	r1, r0
    105a:	e7fb      	b.n	1054 <pinmap_merge+0x18>
    105c:	00007108 	.word	0x00007108

00001060 <pinmap_find_peripheral>:
    1060:	680b      	ldr	r3, [r1, #0]
    1062:	1c5a      	adds	r2, r3, #1
    1064:	d101      	bne.n	106a <pinmap_find_peripheral+0xa>
    1066:	4618      	mov	r0, r3
    1068:	4770      	bx	lr
    106a:	4283      	cmp	r3, r0
    106c:	d101      	bne.n	1072 <pinmap_find_peripheral+0x12>
    106e:	6848      	ldr	r0, [r1, #4]
    1070:	4770      	bx	lr
    1072:	310c      	adds	r1, #12
    1074:	e7f4      	b.n	1060 <pinmap_find_peripheral>
	...

00001078 <pinmap_peripheral>:
    1078:	1c42      	adds	r2, r0, #1
    107a:	b510      	push	{r4, lr}
    107c:	4604      	mov	r4, r0
    107e:	d007      	beq.n	1090 <pinmap_peripheral+0x18>
    1080:	f7ff ffee 	bl	1060 <pinmap_find_peripheral>
    1084:	1c43      	adds	r3, r0, #1
    1086:	4604      	mov	r4, r0
    1088:	d102      	bne.n	1090 <pinmap_peripheral+0x18>
    108a:	4802      	ldr	r0, [pc, #8]	; (1094 <pinmap_peripheral+0x1c>)
    108c:	f000 f865 	bl	115a <error>
    1090:	4620      	mov	r0, r4
    1092:	bd10      	pop	{r4, pc}
    1094:	00007119 	.word	0x00007119

00001098 <mbed_interface_connected>:
    1098:	f000 b84c 	b.w	1134 <semihost_connected>

0000109c <mbed_interface_disconnect>:
    109c:	b508      	push	{r3, lr}
    109e:	f000 f849 	bl	1134 <semihost_connected>
    10a2:	b138      	cbz	r0, 10b4 <mbed_interface_disconnect+0x18>
    10a4:	f000 f84e 	bl	1144 <semihost_disabledebug>
    10a8:	b930      	cbnz	r0, 10b8 <mbed_interface_disconnect+0x1c>
    10aa:	f000 f843 	bl	1134 <semihost_connected>
    10ae:	2800      	cmp	r0, #0
    10b0:	d1fb      	bne.n	10aa <mbed_interface_disconnect+0xe>
    10b2:	bd08      	pop	{r3, pc}
    10b4:	f04f 30ff 	mov.w	r0, #4294967295	; 0xffffffff
    10b8:	bd08      	pop	{r3, pc}

000010ba <core_util_are_interrupts_enabled>:
    10ba:	f3ef 8010 	mrs	r0, PRIMASK
    10be:	43c0      	mvns	r0, r0
    10c0:	f000 0001 	and.w	r0, r0, #1
    10c4:	4770      	bx	lr
	...

000010c8 <core_util_critical_section_enter>:
    10c8:	b508      	push	{r3, lr}
    10ca:	f7ff fff6 	bl	10ba <core_util_are_interrupts_enabled>
    10ce:	b672      	cpsid	i
    10d0:	4b06      	ldr	r3, [pc, #24]	; (10ec <core_util_critical_section_enter+0x24>)
    10d2:	681a      	ldr	r2, [r3, #0]
    10d4:	b922      	cbnz	r2, 10e0 <core_util_critical_section_enter+0x18>
    10d6:	f080 0001 	eor.w	r0, r0, #1
    10da:	4a05      	ldr	r2, [pc, #20]	; (10f0 <core_util_critical_section_enter+0x28>)
    10dc:	b2c0      	uxtb	r0, r0
    10de:	7010      	strb	r0, [r2, #0]
    10e0:	681a      	ldr	r2, [r3, #0]
    10e2:	681a      	ldr	r2, [r3, #0]
    10e4:	3201      	adds	r2, #1
    10e6:	601a      	str	r2, [r3, #0]
    10e8:	bd08      	pop	{r3, pc}
    10ea:	bf00      	nop
    10ec:	100007e8 	.word	0x100007e8
    10f0:	100007e4 	.word	0x100007e4

000010f4 <core_util_critical_section_exit>:
    10f4:	b508      	push	{r3, lr}
    10f6:	4b07      	ldr	r3, [pc, #28]	; (1114 <core_util_critical_section_exit+0x20>)
    10f8:	681a      	ldr	r2, [r3, #0]
    10fa:	b152      	cbz	r2, 1112 <core_util_critical_section_exit+0x1e>
    10fc:	f7ff ffdd 	bl	10ba <core_util_are_interrupts_enabled>
    1100:	681a      	ldr	r2, [r3, #0]
    1102:	3a01      	subs	r2, #1
    1104:	601a      	str	r2, [r3, #0]
    1106:	681b      	ldr	r3, [r3, #0]
    1108:	b91b      	cbnz	r3, 1112 <core_util_critical_section_exit+0x1e>
    110a:	4b03      	ldr	r3, [pc, #12]	; (1118 <core_util_critical_section_exit+0x24>)
    110c:	781b      	ldrb	r3, [r3, #0]
    110e:	b903      	cbnz	r3, 1112 <core_util_critical_section_exit+0x1e>
    1110:	b662      	cpsie	i
    1112:	bd08      	pop	{r3, pc}
    1114:	100007e8 	.word	0x100007e8
    1118:	100007e4 	.word	0x100007e4

0000111c <semihost_exit>:
    111c:	b530      	push	{r4, r5, lr}
    111e:	b085      	sub	sp, #20
    1120:	466d      	mov	r5, sp
    1122:	2418      	movs	r4, #24
    1124:	4620      	mov	r0, r4
    1126:	4629      	mov	r1, r5
    1128:	beab      	bkpt	0x00ab
    112a:	4604      	mov	r4, r0
    112c:	4620      	mov	r0, r4
    112e:	b005      	add	sp, #20
    1130:	bd30      	pop	{r4, r5, pc}
	...

00001134 <semihost_connected>:
    1134:	4b02      	ldr	r3, [pc, #8]	; (1140 <semihost_connected+0xc>)
    1136:	6818      	ldr	r0, [r3, #0]
    1138:	f000 0001 	and.w	r0, r0, #1
    113c:	4770      	bx	lr
    113e:	bf00      	nop
    1140:	e000edf0 	.word	0xe000edf0

00001144 <semihost_disabledebug>:
    1144:	b537      	push	{r0, r1, r2, r4, r5, lr}
    1146:	f240 1405 	movw	r4, #261	; 0x105
    114a:	ad01      	add	r5, sp, #4
    114c:	4620      	mov	r0, r4
    114e:	4629      	mov	r1, r5
    1150:	beab      	bkpt	0x00ab
    1152:	4604      	mov	r4, r0
    1154:	4620      	mov	r0, r4
    1156:	b003      	add	sp, #12
    1158:	bd30      	pop	{r4, r5, pc}

0000115a <error>:
    115a:	b40f      	push	{r0, r1, r2, r3}
    115c:	2001      	movs	r0, #1
    115e:	b508      	push	{r3, lr}
    1160:	f002 ff8c 	bl	407c <__wrap_exit>

00001164 <mbed_die>:
    1164:	b500      	push	{lr}
    1166:	b099      	sub	sp, #100	; 0x64
    1168:	f7ff ffae 	bl	10c8 <core_util_critical_section_enter>
    116c:	4917      	ldr	r1, [pc, #92]	; (11cc <mbed_die+0x68>)
    116e:	4668      	mov	r0, sp
    1170:	f7ff feca 	bl	f08 <gpio_init_out>
    1174:	4916      	ldr	r1, [pc, #88]	; (11d0 <mbed_die+0x6c>)
    1176:	a806      	add	r0, sp, #24
    1178:	f7ff fec6 	bl	f08 <gpio_init_out>
    117c:	4915      	ldr	r1, [pc, #84]	; (11d4 <mbed_die+0x70>)
    117e:	a80c      	add	r0, sp, #48	; 0x30
    1180:	f7ff fec2 	bl	f08 <gpio_init_out>
    1184:	4914      	ldr	r1, [pc, #80]	; (11d8 <mbed_die+0x74>)
    1186:	a812      	add	r0, sp, #72	; 0x48
    1188:	f7ff febe 	bl	f08 <gpio_init_out>
    118c:	9a01      	ldr	r2, [sp, #4]
    118e:	9b03      	ldr	r3, [sp, #12]
    1190:	2096      	movs	r0, #150	; 0x96
    1192:	601a      	str	r2, [r3, #0]
    1194:	9a07      	ldr	r2, [sp, #28]
    1196:	9b0a      	ldr	r3, [sp, #40]	; 0x28
    1198:	601a      	str	r2, [r3, #0]
    119a:	9a0d      	ldr	r2, [sp, #52]	; 0x34
    119c:	9b10      	ldr	r3, [sp, #64]	; 0x40
    119e:	601a      	str	r2, [r3, #0]
    11a0:	9a13      	ldr	r2, [sp, #76]	; 0x4c
    11a2:	9b15      	ldr	r3, [sp, #84]	; 0x54
    11a4:	601a      	str	r2, [r3, #0]
    11a6:	f002 fe21 	bl	3dec <wait_ms>
    11aa:	9a01      	ldr	r2, [sp, #4]
    11ac:	9b04      	ldr	r3, [sp, #16]
    11ae:	2096      	movs	r0, #150	; 0x96
    11b0:	601a      	str	r2, [r3, #0]
    11b2:	9a07      	ldr	r2, [sp, #28]
    11b4:	9b09      	ldr	r3, [sp, #36]	; 0x24
    11b6:	601a      	str	r2, [r3, #0]
    11b8:	9a0d      	ldr	r2, [sp, #52]	; 0x34
    11ba:	9b0f      	ldr	r3, [sp, #60]	; 0x3c
    11bc:	601a      	str	r2, [r3, #0]
    11be:	9a13      	ldr	r2, [sp, #76]	; 0x4c
    11c0:	9b16      	ldr	r3, [sp, #88]	; 0x58
    11c2:	601a      	str	r2, [r3, #0]
    11c4:	f002 fe12 	bl	3dec <wait_ms>
    11c8:	e7e0      	b.n	118c <mbed_die+0x28>
    11ca:	bf00      	nop
    11cc:	2009c032 	.word	0x2009c032
    11d0:	2009c034 	.word	0x2009c034
    11d4:	2009c035 	.word	0x2009c035
    11d8:	2009c037 	.word	0x2009c037

000011dc <default_idle_hook>:
    11dc:	f001 bc70 	b.w	2ac0 <hal_sleep>

000011e0 <rtos_idle_loop>:
    11e0:	b508      	push	{r3, lr}
    11e2:	4c02      	ldr	r4, [pc, #8]	; (11ec <rtos_idle_loop+0xc>)
    11e4:	6823      	ldr	r3, [r4, #0]
    11e6:	4798      	blx	r3
    11e8:	e7fc      	b.n	11e4 <rtos_idle_loop+0x4>
    11ea:	bf00      	nop
    11ec:	100000d0 	.word	0x100000d0

000011f0 <pre_main>:
    11f0:	b508      	push	{r3, lr}
    11f2:	480b      	ldr	r0, [pc, #44]	; (1220 <pre_main+0x30>)
    11f4:	f000 fe98 	bl	1f28 <osMutexCreate>
    11f8:	4b0a      	ldr	r3, [pc, #40]	; (1224 <pre_main+0x34>)
    11fa:	6018      	str	r0, [r3, #0]
    11fc:	480a      	ldr	r0, [pc, #40]	; (1228 <pre_main+0x38>)
    11fe:	f000 fe93 	bl	1f28 <osMutexCreate>
    1202:	4b0a      	ldr	r3, [pc, #40]	; (122c <pre_main+0x3c>)
    1204:	6018      	str	r0, [r3, #0]
    1206:	480a      	ldr	r0, [pc, #40]	; (1230 <pre_main+0x40>)
    1208:	f000 fe8e 	bl	1f28 <osMutexCreate>
    120c:	4b09      	ldr	r3, [pc, #36]	; (1234 <pre_main+0x44>)
    120e:	6018      	str	r0, [r3, #0]
    1210:	f004 fba4 	bl	595c <__libc_init_array>
    1214:	e8bd 4008 	ldmia.w	sp!, {r3, lr}
    1218:	2100      	movs	r1, #0
    121a:	4608      	mov	r0, r1
    121c:	f002 beec 	b.w	3ff8 <__wrap_main>
    1220:	00007198 	.word	0x00007198
    1224:	10001e5c 	.word	0x10001e5c
    1228:	00007194 	.word	0x00007194
    122c:	100007f4 	.word	0x100007f4
    1230:	00007190 	.word	0x00007190
    1234:	100007ec 	.word	0x100007ec

00001238 <os_idle_demon>:
    1238:	f7ff bfd2 	b.w	11e0 <rtos_idle_loop>

0000123c <os_error>:
    123c:	b510      	push	{r4, lr}
    123e:	4604      	mov	r4, r0
    1240:	f000 fdd2 	bl	1de8 <svcThreadGetId>
    1244:	4621      	mov	r1, r4
    1246:	e8bd 4010 	ldmia.w	sp!, {r4, lr}
    124a:	4602      	mov	r2, r0
    124c:	4801      	ldr	r0, [pc, #4]	; (1254 <os_error+0x18>)
    124e:	f7ff bf84 	b.w	115a <error>
    1252:	bf00      	nop
    1254:	00007158 	.word	0x00007158

00001258 <sysThreadTerminate>:
    1258:	f003 b814 	b.w	4284 <thread_terminate_hook>

0000125c <set_stack_heap>:
    125c:	4a0b      	ldr	r2, [pc, #44]	; (128c <set_stack_heap+0x30>)
    125e:	b4f0      	push	{r4, r5, r6, r7}
    1260:	f1c2 5380 	rsb	r3, r2, #268435456	; 0x10000000
    1264:	f503 4300 	add.w	r3, r3, #32768	; 0x8000
    1268:	f5b3 6f80 	cmp.w	r3, #1024	; 0x400
    126c:	4619      	mov	r1, r3
    126e:	bf28      	it	cs
    1270:	f44f 6180 	movcs.w	r1, #1024	; 0x400
    1274:	4f06      	ldr	r7, [pc, #24]	; (1290 <set_stack_heap+0x34>)
    1276:	4d07      	ldr	r5, [pc, #28]	; (1294 <set_stack_heap+0x38>)
    1278:	1a5b      	subs	r3, r3, r1
    127a:	4c07      	ldr	r4, [pc, #28]	; (1298 <set_stack_heap+0x3c>)
    127c:	4807      	ldr	r0, [pc, #28]	; (129c <set_stack_heap+0x40>)
    127e:	189e      	adds	r6, r3, r2
    1280:	603a      	str	r2, [r7, #0]
    1282:	602e      	str	r6, [r5, #0]
    1284:	6023      	str	r3, [r4, #0]
    1286:	6001      	str	r1, [r0, #0]
    1288:	bcf0      	pop	{r4, r5, r6, r7}
    128a:	4770      	bx	lr
    128c:	100025f8 	.word	0x100025f8
    1290:	10001b74 	.word	0x10001b74
    1294:	100007fc 	.word	0x100007fc
    1298:	10001b70 	.word	0x10001b70
    129c:	100007f8 	.word	0x100007f8

000012a0 <software_init_hook_rtos>:
    12a0:	f000 ff26 	bl	20f0 <osKernelInitialize>
    12a4:	f7ff ffda 	bl	125c <set_stack_heap>
    12a8:	4803      	ldr	r0, [pc, #12]	; (12b8 <software_init_hook_rtos+0x18>)
    12aa:	2100      	movs	r1, #0
    12ac:	f000 fec4 	bl	2038 <osThreadCreate>
    12b0:	f000 fd1c 	bl	1cec <osKernelStart>
    12b4:	e7fe      	b.n	12b4 <software_init_hook_rtos+0x14>
    12b6:	0000      	.short	0x0000
    12b8:	100000d4 	.word	0x100000d4

000012bc <__rtos_malloc_lock>:
    12bc:	4b02      	ldr	r3, [pc, #8]	; (12c8 <__rtos_malloc_lock+0xc>)
    12be:	f04f 31ff 	mov.w	r1, #4294967295	; 0xffffffff
    12c2:	6818      	ldr	r0, [r3, #0]
    12c4:	f000 be4e 	b.w	1f64 <osMutexWait>
    12c8:	100007f4 	.word	0x100007f4

000012cc <__rtos_malloc_unlock>:
    12cc:	4b01      	ldr	r3, [pc, #4]	; (12d4 <__rtos_malloc_unlock+0x8>)
    12ce:	6818      	ldr	r0, [r3, #0]
    12d0:	f000 be70 	b.w	1fb4 <osMutexRelease>
    12d4:	100007f4 	.word	0x100007f4

000012d8 <rt_put_prio>:
    12d8:	b530      	push	{r4, r5, lr}
    12da:	7802      	ldrb	r2, [r0, #0]
    12dc:	788c      	ldrb	r4, [r1, #2]
    12de:	3a01      	subs	r2, #1
    12e0:	6843      	ldr	r3, [r0, #4]
    12e2:	b2d2      	uxtb	r2, r2
    12e4:	b113      	cbz	r3, 12ec <rt_put_prio+0x14>
    12e6:	789d      	ldrb	r5, [r3, #2]
    12e8:	42a5      	cmp	r5, r4
    12ea:	d207      	bcs.n	12fc <rt_put_prio+0x24>
    12ec:	2a02      	cmp	r2, #2
    12ee:	604b      	str	r3, [r1, #4]
    12f0:	6041      	str	r1, [r0, #4]
    12f2:	d806      	bhi.n	1302 <rt_put_prio+0x2a>
    12f4:	b103      	cbz	r3, 12f8 <rt_put_prio+0x20>
    12f6:	6099      	str	r1, [r3, #8]
    12f8:	6088      	str	r0, [r1, #8]
    12fa:	bd30      	pop	{r4, r5, pc}
    12fc:	4618      	mov	r0, r3
    12fe:	685b      	ldr	r3, [r3, #4]
    1300:	e7f0      	b.n	12e4 <rt_put_prio+0xc>
    1302:	2300      	movs	r3, #0
    1304:	608b      	str	r3, [r1, #8]
    1306:	bd30      	pop	{r4, r5, pc}

00001308 <rt_get_first>:
    1308:	6843      	ldr	r3, [r0, #4]
    130a:	7802      	ldrb	r2, [r0, #0]
    130c:	6859      	ldr	r1, [r3, #4]
    130e:	3a01      	subs	r2, #1
    1310:	2a02      	cmp	r2, #2
    1312:	6041      	str	r1, [r0, #4]
    1314:	f04f 0200 	mov.w	r2, #0
    1318:	d805      	bhi.n	1326 <rt_get_first+0x1e>
    131a:	b109      	cbz	r1, 1320 <rt_get_first+0x18>
    131c:	6088      	str	r0, [r1, #8]
    131e:	605a      	str	r2, [r3, #4]
    1320:	609a      	str	r2, [r3, #8]
    1322:	4618      	mov	r0, r3
    1324:	4770      	bx	lr
    1326:	605a      	str	r2, [r3, #4]
    1328:	e7fb      	b.n	1322 <rt_get_first+0x1a>
	...

0000132c <rt_put_rdy_first>:
    132c:	4b03      	ldr	r3, [pc, #12]	; (133c <rt_put_rdy_first+0x10>)
    132e:	685a      	ldr	r2, [r3, #4]
    1330:	6042      	str	r2, [r0, #4]
    1332:	2200      	movs	r2, #0
    1334:	6058      	str	r0, [r3, #4]
    1336:	6082      	str	r2, [r0, #8]
    1338:	4770      	bx	lr
    133a:	bf00      	nop
    133c:	10002550 	.word	0x10002550

00001340 <rt_put_dly>:
    1340:	4b10      	ldr	r3, [pc, #64]	; (1384 <rt_put_dly+0x44>)
    1342:	b510      	push	{r4, lr}
    1344:	68da      	ldr	r2, [r3, #12]
    1346:	b18a      	cbz	r2, 136c <rt_put_dly+0x2c>
    1348:	8a9a      	ldrh	r2, [r3, #20]
    134a:	428a      	cmp	r2, r1
    134c:	68dc      	ldr	r4, [r3, #12]
    134e:	d30c      	bcc.n	136a <rt_put_dly+0x2a>
    1350:	60c4      	str	r4, [r0, #12]
    1352:	60d8      	str	r0, [r3, #12]
    1354:	68c4      	ldr	r4, [r0, #12]
    1356:	6103      	str	r3, [r0, #16]
    1358:	b104      	cbz	r4, 135c <rt_put_dly+0x1c>
    135a:	6120      	str	r0, [r4, #16]
    135c:	1a52      	subs	r2, r2, r1
    135e:	b292      	uxth	r2, r2
    1360:	8282      	strh	r2, [r0, #20]
    1362:	8a99      	ldrh	r1, [r3, #20]
    1364:	1a8a      	subs	r2, r1, r2
    1366:	829a      	strh	r2, [r3, #20]
    1368:	bd10      	pop	{r4, pc}
    136a:	b93c      	cbnz	r4, 137c <rt_put_dly+0x3c>
    136c:	2400      	movs	r4, #0
    136e:	1a8a      	subs	r2, r1, r2
    1370:	60c4      	str	r4, [r0, #12]
    1372:	60d8      	str	r0, [r3, #12]
    1374:	6103      	str	r3, [r0, #16]
    1376:	829a      	strh	r2, [r3, #20]
    1378:	8284      	strh	r4, [r0, #20]
    137a:	bd10      	pop	{r4, pc}
    137c:	8aa3      	ldrh	r3, [r4, #20]
    137e:	441a      	add	r2, r3
    1380:	4623      	mov	r3, r4
    1382:	e7e2      	b.n	134a <rt_put_dly+0xa>
    1384:	10002568 	.word	0x10002568

00001388 <rt_dec_dly>:
    1388:	e92d 41f0 	stmdb	sp!, {r4, r5, r6, r7, r8, lr}
    138c:	4d17      	ldr	r5, [pc, #92]	; (13ec <rt_dec_dly+0x64>)
    138e:	68eb      	ldr	r3, [r5, #12]
    1390:	b153      	cbz	r3, 13a8 <rt_dec_dly+0x20>
    1392:	2600      	movs	r6, #0
    1394:	8aab      	ldrh	r3, [r5, #20]
    1396:	4f16      	ldr	r7, [pc, #88]	; (13f0 <rt_dec_dly+0x68>)
    1398:	3b01      	subs	r3, #1
    139a:	f8df 8058 	ldr.w	r8, [pc, #88]	; 13f4 <rt_dec_dly+0x6c>
    139e:	82ab      	strh	r3, [r5, #20]
    13a0:	8aaa      	ldrh	r2, [r5, #20]
    13a2:	b90a      	cbnz	r2, 13a8 <rt_dec_dly+0x20>
    13a4:	68ec      	ldr	r4, [r5, #12]
    13a6:	b90c      	cbnz	r4, 13ac <rt_dec_dly+0x24>
    13a8:	e8bd 81f0 	ldmia.w	sp!, {r4, r5, r6, r7, r8, pc}
    13ac:	68a3      	ldr	r3, [r4, #8]
    13ae:	b133      	cbz	r3, 13be <rt_dec_dly+0x36>
    13b0:	6861      	ldr	r1, [r4, #4]
    13b2:	6059      	str	r1, [r3, #4]
    13b4:	6861      	ldr	r1, [r4, #4]
    13b6:	b109      	cbz	r1, 13bc <rt_dec_dly+0x34>
    13b8:	608b      	str	r3, [r1, #8]
    13ba:	6062      	str	r2, [r4, #4]
    13bc:	60a6      	str	r6, [r4, #8]
    13be:	4621      	mov	r1, r4
    13c0:	4638      	mov	r0, r7
    13c2:	f7ff ff89 	bl	12d8 <rt_put_prio>
    13c6:	8aa3      	ldrh	r3, [r4, #20]
    13c8:	82ab      	strh	r3, [r5, #20]
    13ca:	7863      	ldrb	r3, [r4, #1]
    13cc:	2b04      	cmp	r3, #4
    13ce:	bf01      	itttt	eq
    13d0:	f8d8 3000 	ldreq.w	r3, [r8]
    13d4:	8ae2      	ldrheq	r2, [r4, #22]
    13d6:	189b      	addeq	r3, r3, r2
    13d8:	82a3      	strheq	r3, [r4, #20]
    13da:	2301      	movs	r3, #1
    13dc:	7063      	strb	r3, [r4, #1]
    13de:	68e3      	ldr	r3, [r4, #12]
    13e0:	60eb      	str	r3, [r5, #12]
    13e2:	b10b      	cbz	r3, 13e8 <rt_dec_dly+0x60>
    13e4:	611d      	str	r5, [r3, #16]
    13e6:	60e6      	str	r6, [r4, #12]
    13e8:	6126      	str	r6, [r4, #16]
    13ea:	e7d9      	b.n	13a0 <rt_dec_dly+0x18>
    13ec:	10002568 	.word	0x10002568
    13f0:	10002550 	.word	0x10002550
    13f4:	100025e4 	.word	0x100025e4

000013f8 <rt_rmv_list>:
    13f8:	6883      	ldr	r3, [r0, #8]
    13fa:	b12b      	cbz	r3, 1408 <rt_rmv_list+0x10>
    13fc:	6842      	ldr	r2, [r0, #4]
    13fe:	605a      	str	r2, [r3, #4]
    1400:	6842      	ldr	r2, [r0, #4]
    1402:	b15a      	cbz	r2, 141c <rt_rmv_list+0x24>
    1404:	6093      	str	r3, [r2, #8]
    1406:	4770      	bx	lr
    1408:	4b05      	ldr	r3, [pc, #20]	; (1420 <rt_rmv_list+0x28>)
    140a:	685a      	ldr	r2, [r3, #4]
    140c:	4290      	cmp	r0, r2
    140e:	d102      	bne.n	1416 <rt_rmv_list+0x1e>
    1410:	6842      	ldr	r2, [r0, #4]
    1412:	605a      	str	r2, [r3, #4]
    1414:	4770      	bx	lr
    1416:	4613      	mov	r3, r2
    1418:	2a00      	cmp	r2, #0
    141a:	d1f6      	bne.n	140a <rt_rmv_list+0x12>
    141c:	4770      	bx	lr
    141e:	bf00      	nop
    1420:	10002550 	.word	0x10002550

00001424 <rt_resort_prio>:
    1424:	b510      	push	{r4, lr}
    1426:	6884      	ldr	r4, [r0, #8]
    1428:	4601      	mov	r1, r0
    142a:	b92c      	cbnz	r4, 1438 <rt_resort_prio+0x14>
    142c:	7843      	ldrb	r3, [r0, #1]
    142e:	2b01      	cmp	r3, #1
    1430:	d10d      	bne.n	144e <rt_resort_prio+0x2a>
    1432:	4c07      	ldr	r4, [pc, #28]	; (1450 <rt_resort_prio+0x2c>)
    1434:	e003      	b.n	143e <rt_resort_prio+0x1a>
    1436:	68a4      	ldr	r4, [r4, #8]
    1438:	7823      	ldrb	r3, [r4, #0]
    143a:	2b00      	cmp	r3, #0
    143c:	d0fb      	beq.n	1436 <rt_resort_prio+0x12>
    143e:	4608      	mov	r0, r1
    1440:	f7ff ffda 	bl	13f8 <rt_rmv_list>
    1444:	4620      	mov	r0, r4
    1446:	e8bd 4010 	ldmia.w	sp!, {r4, lr}
    144a:	f7ff bf45 	b.w	12d8 <rt_put_prio>
    144e:	bd10      	pop	{r4, pc}
    1450:	10002550 	.word	0x10002550

00001454 <rt_rmv_dly>:
    1454:	6903      	ldr	r3, [r0, #16]
    1456:	b510      	push	{r4, lr}
    1458:	b163      	cbz	r3, 1474 <rt_rmv_dly+0x20>
    145a:	68c2      	ldr	r2, [r0, #12]
    145c:	60da      	str	r2, [r3, #12]
    145e:	68c2      	ldr	r2, [r0, #12]
    1460:	b14a      	cbz	r2, 1476 <rt_rmv_dly+0x22>
    1462:	8a99      	ldrh	r1, [r3, #20]
    1464:	8a84      	ldrh	r4, [r0, #20]
    1466:	4421      	add	r1, r4
    1468:	8299      	strh	r1, [r3, #20]
    146a:	6113      	str	r3, [r2, #16]
    146c:	2300      	movs	r3, #0
    146e:	60c3      	str	r3, [r0, #12]
    1470:	2300      	movs	r3, #0
    1472:	6103      	str	r3, [r0, #16]
    1474:	bd10      	pop	{r4, pc}
    1476:	829a      	strh	r2, [r3, #20]
    1478:	e7fa      	b.n	1470 <rt_rmv_dly+0x1c>
	...

0000147c <rt_psq_enq>:
    147c:	b470      	push	{r4, r5, r6}
    147e:	4b11      	ldr	r3, [pc, #68]	; (14c4 <rt_psq_enq+0x48>)
    1480:	78dd      	ldrb	r5, [r3, #3]
    1482:	f3ef 8610 	mrs	r6, PRIMASK
    1486:	f3ef 8210 	mrs	r2, PRIMASK
    148a:	b672      	cpsid	i
    148c:	789a      	ldrb	r2, [r3, #2]
    148e:	4295      	cmp	r5, r2
    1490:	d911      	bls.n	14b6 <rt_psq_enq+0x3a>
    1492:	3201      	adds	r2, #1
    1494:	709a      	strb	r2, [r3, #2]
    1496:	781a      	ldrb	r2, [r3, #0]
    1498:	1c54      	adds	r4, r2, #1
    149a:	42a5      	cmp	r5, r4
    149c:	bf08      	it	eq
    149e:	2400      	moveq	r4, #0
    14a0:	701c      	strb	r4, [r3, #0]
    14a2:	b906      	cbnz	r6, 14a6 <rt_psq_enq+0x2a>
    14a4:	b662      	cpsie	i
    14a6:	4295      	cmp	r5, r2
    14a8:	d907      	bls.n	14ba <rt_psq_enq+0x3e>
    14aa:	bc70      	pop	{r4, r5, r6}
    14ac:	eb03 03c2 	add.w	r3, r3, r2, lsl #3
    14b0:	6058      	str	r0, [r3, #4]
    14b2:	6099      	str	r1, [r3, #8]
    14b4:	4770      	bx	lr
    14b6:	2e00      	cmp	r6, #0
    14b8:	d0f4      	beq.n	14a4 <rt_psq_enq+0x28>
    14ba:	bc70      	pop	{r4, r5, r6}
    14bc:	2002      	movs	r0, #2
    14be:	f7ff bebd 	b.w	123c <os_error>
    14c2:	bf00      	nop
    14c4:	10001dd4 	.word	0x10001dd4

000014c8 <rt_mut_init>:
    14c8:	2303      	movs	r3, #3
    14ca:	7003      	strb	r3, [r0, #0]
    14cc:	2300      	movs	r3, #0
    14ce:	8043      	strh	r3, [r0, #2]
    14d0:	6043      	str	r3, [r0, #4]
    14d2:	6083      	str	r3, [r0, #8]
    14d4:	60c3      	str	r3, [r0, #12]
    14d6:	4770      	bx	lr

000014d8 <rt_mut_delete>:
    14d8:	b5f8      	push	{r3, r4, r5, r6, r7, lr}
    14da:	8843      	ldrh	r3, [r0, #2]
    14dc:	4604      	mov	r4, r0
    14de:	b19b      	cbz	r3, 1508 <rt_mut_delete+0x30>
    14e0:	6880      	ldr	r0, [r0, #8]
    14e2:	6a03      	ldr	r3, [r0, #32]
    14e4:	429c      	cmp	r4, r3
    14e6:	d128      	bne.n	153a <rt_mut_delete+0x62>
    14e8:	68e3      	ldr	r3, [r4, #12]
    14ea:	6203      	str	r3, [r0, #32]
    14ec:	f890 3024 	ldrb.w	r3, [r0, #36]	; 0x24
    14f0:	6a02      	ldr	r2, [r0, #32]
    14f2:	bb52      	cbnz	r2, 154a <rt_mut_delete+0x72>
    14f4:	7882      	ldrb	r2, [r0, #2]
    14f6:	429a      	cmp	r2, r3
    14f8:	d006      	beq.n	1508 <rt_mut_delete+0x30>
    14fa:	7083      	strb	r3, [r0, #2]
    14fc:	4b1f      	ldr	r3, [pc, #124]	; (157c <rt_mut_delete+0xa4>)
    14fe:	681b      	ldr	r3, [r3, #0]
    1500:	4298      	cmp	r0, r3
    1502:	d001      	beq.n	1508 <rt_mut_delete+0x30>
    1504:	f7ff ff8e 	bl	1424 <rt_resort_prio>
    1508:	2601      	movs	r6, #1
    150a:	4f1d      	ldr	r7, [pc, #116]	; (1580 <rt_mut_delete+0xa8>)
    150c:	6865      	ldr	r5, [r4, #4]
    150e:	bb25      	cbnz	r5, 155a <rt_mut_delete+0x82>
    1510:	481b      	ldr	r0, [pc, #108]	; (1580 <rt_mut_delete+0xa8>)
    1512:	6843      	ldr	r3, [r0, #4]
    1514:	b16b      	cbz	r3, 1532 <rt_mut_delete+0x5a>
    1516:	4e19      	ldr	r6, [pc, #100]	; (157c <rt_mut_delete+0xa4>)
    1518:	789a      	ldrb	r2, [r3, #2]
    151a:	6831      	ldr	r1, [r6, #0]
    151c:	788b      	ldrb	r3, [r1, #2]
    151e:	429a      	cmp	r2, r3
    1520:	d907      	bls.n	1532 <rt_mut_delete+0x5a>
    1522:	f7ff fed9 	bl	12d8 <rt_put_prio>
    1526:	2201      	movs	r2, #1
    1528:	6833      	ldr	r3, [r6, #0]
    152a:	4628      	mov	r0, r5
    152c:	705a      	strb	r2, [r3, #1]
    152e:	f000 fed3 	bl	22d8 <rt_dispatch>
    1532:	2000      	movs	r0, #0
    1534:	7020      	strb	r0, [r4, #0]
    1536:	bdf8      	pop	{r3, r4, r5, r6, r7, pc}
    1538:	4613      	mov	r3, r2
    153a:	2b00      	cmp	r3, #0
    153c:	d0d6      	beq.n	14ec <rt_mut_delete+0x14>
    153e:	68da      	ldr	r2, [r3, #12]
    1540:	4294      	cmp	r4, r2
    1542:	d1f9      	bne.n	1538 <rt_mut_delete+0x60>
    1544:	68e2      	ldr	r2, [r4, #12]
    1546:	60da      	str	r2, [r3, #12]
    1548:	e7d0      	b.n	14ec <rt_mut_delete+0x14>
    154a:	6851      	ldr	r1, [r2, #4]
    154c:	b119      	cbz	r1, 1556 <rt_mut_delete+0x7e>
    154e:	7889      	ldrb	r1, [r1, #2]
    1550:	428b      	cmp	r3, r1
    1552:	bf38      	it	cc
    1554:	460b      	movcc	r3, r1
    1556:	68d2      	ldr	r2, [r2, #12]
    1558:	e7cb      	b.n	14f2 <rt_mut_delete+0x1a>
    155a:	4620      	mov	r0, r4
    155c:	f7ff fed4 	bl	1308 <rt_get_first>
    1560:	4605      	mov	r5, r0
    1562:	2100      	movs	r1, #0
    1564:	f000 f8f6 	bl	1754 <rt_ret_val>
    1568:	4628      	mov	r0, r5
    156a:	f7ff ff73 	bl	1454 <rt_rmv_dly>
    156e:	706e      	strb	r6, [r5, #1]
    1570:	4629      	mov	r1, r5
    1572:	4638      	mov	r0, r7
    1574:	f7ff feb0 	bl	12d8 <rt_put_prio>
    1578:	e7c8      	b.n	150c <rt_mut_delete+0x34>
    157a:	bf00      	nop
    157c:	1000259c 	.word	0x1000259c
    1580:	10002550 	.word	0x10002550

00001584 <rt_mut_release>:
    1584:	e92d 43f8 	stmdb	sp!, {r3, r4, r5, r6, r7, r8, r9, lr}
    1588:	8843      	ldrh	r3, [r0, #2]
    158a:	4605      	mov	r5, r0
    158c:	2b00      	cmp	r3, #0
    158e:	d063      	beq.n	1658 <rt_mut_release+0xd4>
    1590:	4f32      	ldr	r7, [pc, #200]	; (165c <rt_mut_release+0xd8>)
    1592:	6881      	ldr	r1, [r0, #8]
    1594:	683a      	ldr	r2, [r7, #0]
    1596:	4291      	cmp	r1, r2
    1598:	d15e      	bne.n	1658 <rt_mut_release+0xd4>
    159a:	3b01      	subs	r3, #1
    159c:	b29b      	uxth	r3, r3
    159e:	8043      	strh	r3, [r0, #2]
    15a0:	b11b      	cbz	r3, 15aa <rt_mut_release+0x26>
    15a2:	2400      	movs	r4, #0
    15a4:	4620      	mov	r0, r4
    15a6:	e8bd 83f8 	ldmia.w	sp!, {r3, r4, r5, r6, r7, r8, r9, pc}
    15aa:	6a0b      	ldr	r3, [r1, #32]
    15ac:	4298      	cmp	r0, r3
    15ae:	d129      	bne.n	1604 <rt_mut_release+0x80>
    15b0:	68c3      	ldr	r3, [r0, #12]
    15b2:	620b      	str	r3, [r1, #32]
    15b4:	f891 3024 	ldrb.w	r3, [r1, #36]	; 0x24
    15b8:	6a0c      	ldr	r4, [r1, #32]
    15ba:	bb5c      	cbnz	r4, 1614 <rt_mut_release+0x90>
    15bc:	708b      	strb	r3, [r1, #2]
    15be:	686a      	ldr	r2, [r5, #4]
    15c0:	f8df 809c 	ldr.w	r8, [pc, #156]	; 1660 <rt_mut_release+0xdc>
    15c4:	2a00      	cmp	r2, #0
    15c6:	d03b      	beq.n	1640 <rt_mut_release+0xbc>
    15c8:	4628      	mov	r0, r5
    15ca:	f7ff fe9d 	bl	1308 <rt_get_first>
    15ce:	4606      	mov	r6, r0
    15d0:	f04f 0901 	mov.w	r9, #1
    15d4:	4621      	mov	r1, r4
    15d6:	f000 f8bd 	bl	1754 <rt_ret_val>
    15da:	4630      	mov	r0, r6
    15dc:	f7ff ff3a 	bl	1454 <rt_rmv_dly>
    15e0:	6a33      	ldr	r3, [r6, #32]
    15e2:	6839      	ldr	r1, [r7, #0]
    15e4:	60eb      	str	r3, [r5, #12]
    15e6:	f8d8 3004 	ldr.w	r3, [r8, #4]
    15ea:	f8a5 9002 	strh.w	r9, [r5, #2]
    15ee:	60ae      	str	r6, [r5, #8]
    15f0:	6235      	str	r5, [r6, #32]
    15f2:	788a      	ldrb	r2, [r1, #2]
    15f4:	789b      	ldrb	r3, [r3, #2]
    15f6:	429a      	cmp	r2, r3
    15f8:	d314      	bcc.n	1624 <rt_mut_release+0xa0>
    15fa:	4630      	mov	r0, r6
    15fc:	f000 fe6c 	bl	22d8 <rt_dispatch>
    1600:	e7d0      	b.n	15a4 <rt_mut_release+0x20>
    1602:	4613      	mov	r3, r2
    1604:	2b00      	cmp	r3, #0
    1606:	d0d5      	beq.n	15b4 <rt_mut_release+0x30>
    1608:	68da      	ldr	r2, [r3, #12]
    160a:	4295      	cmp	r5, r2
    160c:	d1f9      	bne.n	1602 <rt_mut_release+0x7e>
    160e:	68ea      	ldr	r2, [r5, #12]
    1610:	60da      	str	r2, [r3, #12]
    1612:	e7cf      	b.n	15b4 <rt_mut_release+0x30>
    1614:	6862      	ldr	r2, [r4, #4]
    1616:	b11a      	cbz	r2, 1620 <rt_mut_release+0x9c>
    1618:	7892      	ldrb	r2, [r2, #2]
    161a:	4293      	cmp	r3, r2
    161c:	bf38      	it	cc
    161e:	4613      	movcc	r3, r2
    1620:	68e4      	ldr	r4, [r4, #12]
    1622:	e7ca      	b.n	15ba <rt_mut_release+0x36>
    1624:	4640      	mov	r0, r8
    1626:	f7ff fe57 	bl	12d8 <rt_put_prio>
    162a:	4631      	mov	r1, r6
    162c:	4640      	mov	r0, r8
    162e:	f7ff fe53 	bl	12d8 <rt_put_prio>
    1632:	683b      	ldr	r3, [r7, #0]
    1634:	f883 9001 	strb.w	r9, [r3, #1]
    1638:	f886 9001 	strb.w	r9, [r6, #1]
    163c:	4620      	mov	r0, r4
    163e:	e7dd      	b.n	15fc <rt_mut_release+0x78>
    1640:	f8d8 2004 	ldr.w	r2, [r8, #4]
    1644:	7892      	ldrb	r2, [r2, #2]
    1646:	429a      	cmp	r2, r3
    1648:	d9ab      	bls.n	15a2 <rt_mut_release+0x1e>
    164a:	4640      	mov	r0, r8
    164c:	f7ff fe44 	bl	12d8 <rt_put_prio>
    1650:	2201      	movs	r2, #1
    1652:	683b      	ldr	r3, [r7, #0]
    1654:	705a      	strb	r2, [r3, #1]
    1656:	e7f1      	b.n	163c <rt_mut_release+0xb8>
    1658:	24ff      	movs	r4, #255	; 0xff
    165a:	e7a3      	b.n	15a4 <rt_mut_release+0x20>
    165c:	1000259c 	.word	0x1000259c
    1660:	10002550 	.word	0x10002550

00001664 <rt_mut_wait>:
    1664:	8843      	ldrh	r3, [r0, #2]
    1666:	b570      	push	{r4, r5, r6, lr}
    1668:	4604      	mov	r4, r0
    166a:	460e      	mov	r6, r1
    166c:	4d13      	ldr	r5, [pc, #76]	; (16bc <rt_mut_wait+0x58>)
    166e:	b943      	cbnz	r3, 1682 <rt_mut_wait+0x1e>
    1670:	682a      	ldr	r2, [r5, #0]
    1672:	6a11      	ldr	r1, [r2, #32]
    1674:	6082      	str	r2, [r0, #8]
    1676:	60c1      	str	r1, [r0, #12]
    1678:	6210      	str	r0, [r2, #32]
    167a:	3301      	adds	r3, #1
    167c:	8063      	strh	r3, [r4, #2]
    167e:	2000      	movs	r0, #0
    1680:	bd70      	pop	{r4, r5, r6, pc}
    1682:	6880      	ldr	r0, [r0, #8]
    1684:	682a      	ldr	r2, [r5, #0]
    1686:	4290      	cmp	r0, r2
    1688:	d0f7      	beq.n	167a <rt_mut_wait+0x16>
    168a:	b181      	cbz	r1, 16ae <rt_mut_wait+0x4a>
    168c:	7893      	ldrb	r3, [r2, #2]
    168e:	7882      	ldrb	r2, [r0, #2]
    1690:	429a      	cmp	r2, r3
    1692:	d202      	bcs.n	169a <rt_mut_wait+0x36>
    1694:	7083      	strb	r3, [r0, #2]
    1696:	f7ff fec5 	bl	1424 <rt_resort_prio>
    169a:	6862      	ldr	r2, [r4, #4]
    169c:	b14a      	cbz	r2, 16b2 <rt_mut_wait+0x4e>
    169e:	6829      	ldr	r1, [r5, #0]
    16a0:	4620      	mov	r0, r4
    16a2:	f7ff fe19 	bl	12d8 <rt_put_prio>
    16a6:	2109      	movs	r1, #9
    16a8:	4630      	mov	r0, r6
    16aa:	f000 fe37 	bl	231c <rt_block>
    16ae:	2001      	movs	r0, #1
    16b0:	bd70      	pop	{r4, r5, r6, pc}
    16b2:	682b      	ldr	r3, [r5, #0]
    16b4:	6063      	str	r3, [r4, #4]
    16b6:	605a      	str	r2, [r3, #4]
    16b8:	609c      	str	r4, [r3, #8]
    16ba:	e7f4      	b.n	16a6 <rt_mut_wait+0x42>
    16bc:	1000259c 	.word	0x1000259c

000016c0 <rt_init_stack>:
    16c0:	b5f0      	push	{r4, r5, r6, r7, lr}
    16c2:	f04f 7680 	mov.w	r6, #16777216	; 0x1000000
    16c6:	f04f 0e00 	mov.w	lr, #0
    16ca:	6a83      	ldr	r3, [r0, #40]	; 0x28
    16cc:	6b05      	ldr	r5, [r0, #48]	; 0x30
    16ce:	089b      	lsrs	r3, r3, #2
    16d0:	bf02      	ittt	eq
    16d2:	4b1e      	ldreq	r3, [pc, #120]	; (174c <rt_init_stack+0x8c>)
    16d4:	881b      	ldrheq	r3, [r3, #0]
    16d6:	089b      	lsreq	r3, r3, #2
    16d8:	eb05 0283 	add.w	r2, r5, r3, lsl #2
    16dc:	0754      	lsls	r4, r2, #29
    16de:	bf48      	it	mi
    16e0:	3a04      	submi	r2, #4
    16e2:	e902 0042 	stmdb	r2, {r1, r6}
    16e6:	f1a2 0440 	sub.w	r4, r2, #64	; 0x40
    16ea:	f1a2 0644 	sub.w	r6, r2, #68	; 0x44
    16ee:	f1a2 070c 	sub.w	r7, r2, #12
    16f2:	f846 ef04 	str.w	lr, [r6, #4]!
    16f6:	42be      	cmp	r6, r7
    16f8:	d1fb      	bne.n	16f2 <rt_init_stack+0x32>
    16fa:	69c6      	ldr	r6, [r0, #28]
    16fc:	f842 6c20 	str.w	r6, [r2, #-32]
    1700:	6341      	str	r1, [r0, #52]	; 0x34
    1702:	4912      	ldr	r1, [pc, #72]	; (174c <rt_init_stack+0x8c>)
    1704:	62c4      	str	r4, [r0, #44]	; 0x2c
    1706:	6809      	ldr	r1, [r1, #0]
    1708:	00c9      	lsls	r1, r1, #3
    170a:	d517      	bpl.n	173c <rt_init_stack+0x7c>
    170c:	2b11      	cmp	r3, #17
    170e:	d915      	bls.n	173c <rt_init_stack+0x7c>
    1710:	f06f 0107 	mvn.w	r1, #7
    1714:	3b10      	subs	r3, #16
    1716:	085b      	lsrs	r3, r3, #1
    1718:	434b      	muls	r3, r1
    171a:	f1a3 0138 	sub.w	r1, r3, #56	; 0x38
    171e:	440a      	add	r2, r1
    1720:	f04f 30cc 	mov.w	r0, #3435973836	; 0xcccccccc
    1724:	4621      	mov	r1, r4
    1726:	4291      	cmp	r1, r2
    1728:	d10b      	bne.n	1742 <rt_init_stack+0x82>
    172a:	3308      	adds	r3, #8
    172c:	441c      	add	r4, r3
    172e:	1f23      	subs	r3, r4, #4
    1730:	429d      	cmp	r5, r3
    1732:	bf3c      	itt	cc
    1734:	f04f 33cc 	movcc.w	r3, #3435973836	; 0xcccccccc
    1738:	f844 3c04 	strcc.w	r3, [r4, #-4]
    173c:	4b04      	ldr	r3, [pc, #16]	; (1750 <rt_init_stack+0x90>)
    173e:	602b      	str	r3, [r5, #0]
    1740:	bdf0      	pop	{r4, r5, r6, r7, pc}
    1742:	f841 0c04 	str.w	r0, [r1, #-4]
    1746:	f841 0d08 	str.w	r0, [r1, #-8]!
    174a:	e7ec      	b.n	1726 <rt_init_stack+0x66>
    174c:	000071a0 	.word	0x000071a0
    1750:	e25a2ea5 	.word	0xe25a2ea5

00001754 <rt_ret_val>:
    1754:	6ac3      	ldr	r3, [r0, #44]	; 0x2c
    1756:	6219      	str	r1, [r3, #32]
    1758:	4770      	bx	lr

0000175a <rt_ret_val2>:
    175a:	6ac3      	ldr	r3, [r0, #44]	; 0x2c
    175c:	6219      	str	r1, [r3, #32]
    175e:	625a      	str	r2, [r3, #36]	; 0x24
    1760:	4770      	bx	lr
	...

00001764 <rt_psh_req>:
    1764:	4b05      	ldr	r3, [pc, #20]	; (177c <rt_psh_req+0x18>)
    1766:	781b      	ldrb	r3, [r3, #0]
    1768:	b923      	cbnz	r3, 1774 <rt_psh_req+0x10>
    176a:	f04f 5280 	mov.w	r2, #268435456	; 0x10000000
    176e:	4b04      	ldr	r3, [pc, #16]	; (1780 <rt_psh_req+0x1c>)
    1770:	601a      	str	r2, [r3, #0]
    1772:	4770      	bx	lr
    1774:	2201      	movs	r2, #1
    1776:	4b03      	ldr	r3, [pc, #12]	; (1784 <rt_psh_req+0x20>)
    1778:	701a      	strb	r2, [r3, #0]
    177a:	4770      	bx	lr
    177c:	10001850 	.word	0x10001850
    1780:	e000ed04 	.word	0xe000ed04
    1784:	10001851 	.word	0x10001851

00001788 <rt_pop_req>:
    1788:	b538      	push	{r3, r4, r5, lr}
    178a:	4b1a      	ldr	r3, [pc, #104]	; (17f4 <rt_pop_req+0x6c>)
    178c:	4c1a      	ldr	r4, [pc, #104]	; (17f8 <rt_pop_req+0x70>)
    178e:	6818      	ldr	r0, [r3, #0]
    1790:	2301      	movs	r3, #1
    1792:	7043      	strb	r3, [r0, #1]
    1794:	f7ff fdca 	bl	132c <rt_put_rdy_first>
    1798:	7865      	ldrb	r5, [r4, #1]
    179a:	78a3      	ldrb	r3, [r4, #2]
    179c:	b93b      	cbnz	r3, 17ae <rt_pop_req+0x26>
    179e:	4817      	ldr	r0, [pc, #92]	; (17fc <rt_pop_req+0x74>)
    17a0:	7065      	strb	r5, [r4, #1]
    17a2:	f7ff fdb1 	bl	1308 <rt_get_first>
    17a6:	e8bd 4038 	ldmia.w	sp!, {r3, r4, r5, lr}
    17aa:	f000 bd7b 	b.w	22a4 <rt_switch_req>
    17ae:	eb04 03c5 	add.w	r3, r4, r5, lsl #3
    17b2:	6858      	ldr	r0, [r3, #4]
    17b4:	7802      	ldrb	r2, [r0, #0]
    17b6:	b99a      	cbnz	r2, 17e0 <rt_pop_req+0x58>
    17b8:	8919      	ldrh	r1, [r3, #8]
    17ba:	f000 f9bb 	bl	1b34 <rt_evt_psh>
    17be:	78e3      	ldrb	r3, [r4, #3]
    17c0:	3501      	adds	r5, #1
    17c2:	429d      	cmp	r5, r3
    17c4:	bf08      	it	eq
    17c6:	2500      	moveq	r5, #0
    17c8:	f3ef 8310 	mrs	r3, PRIMASK
    17cc:	f3ef 8210 	mrs	r2, PRIMASK
    17d0:	b672      	cpsid	i
    17d2:	78a2      	ldrb	r2, [r4, #2]
    17d4:	3a01      	subs	r2, #1
    17d6:	70a2      	strb	r2, [r4, #2]
    17d8:	2b00      	cmp	r3, #0
    17da:	d1de      	bne.n	179a <rt_pop_req+0x12>
    17dc:	b662      	cpsie	i
    17de:	e7dc      	b.n	179a <rt_pop_req+0x12>
    17e0:	2a01      	cmp	r2, #1
    17e2:	d103      	bne.n	17ec <rt_pop_req+0x64>
    17e4:	6899      	ldr	r1, [r3, #8]
    17e6:	f000 f933 	bl	1a50 <rt_mbx_psh>
    17ea:	e7e8      	b.n	17be <rt_pop_req+0x36>
    17ec:	f000 ffba 	bl	2764 <rt_sem_psh>
    17f0:	e7e5      	b.n	17be <rt_pop_req+0x36>
    17f2:	bf00      	nop
    17f4:	1000259c 	.word	0x1000259c
    17f8:	10001dd4 	.word	0x10001dd4
    17fc:	10002550 	.word	0x10002550

00001800 <os_tick_init>:
    1800:	4b08      	ldr	r3, [pc, #32]	; (1824 <os_tick_init+0x24>)
    1802:	f04f 30ff 	mov.w	r0, #4294967295	; 0xffffffff
    1806:	681a      	ldr	r2, [r3, #0]
    1808:	4b07      	ldr	r3, [pc, #28]	; (1828 <os_tick_init+0x28>)
    180a:	601a      	str	r2, [r3, #0]
    180c:	2200      	movs	r2, #0
    180e:	605a      	str	r2, [r3, #4]
    1810:	2207      	movs	r2, #7
    1812:	f843 2c04 	str.w	r2, [r3, #-4]
    1816:	4a05      	ldr	r2, [pc, #20]	; (182c <os_tick_init+0x2c>)
    1818:	6813      	ldr	r3, [r2, #0]
    181a:	f043 437f 	orr.w	r3, r3, #4278190080	; 0xff000000
    181e:	6013      	str	r3, [r2, #0]
    1820:	4770      	bx	lr
    1822:	bf00      	nop
    1824:	000071b8 	.word	0x000071b8
    1828:	e000e014 	.word	0xe000e014
    182c:	e000ed20 	.word	0xe000ed20

00001830 <os_tick_irqack>:
    1830:	4770      	bx	lr
	...

00001834 <rt_systick>:
    1834:	b508      	push	{r3, lr}
    1836:	4b0b      	ldr	r3, [pc, #44]	; (1864 <rt_systick+0x30>)
    1838:	6818      	ldr	r0, [r3, #0]
    183a:	2301      	movs	r3, #1
    183c:	7043      	strb	r3, [r0, #1]
    183e:	f7ff fd75 	bl	132c <rt_put_rdy_first>
    1842:	f000 f9ad 	bl	1ba0 <rt_chk_robin>
    1846:	4a08      	ldr	r2, [pc, #32]	; (1868 <rt_systick+0x34>)
    1848:	6813      	ldr	r3, [r2, #0]
    184a:	3301      	adds	r3, #1
    184c:	6013      	str	r3, [r2, #0]
    184e:	f7ff fd9b 	bl	1388 <rt_dec_dly>
    1852:	f000 fcaf 	bl	21b4 <sysTimerTick>
    1856:	4805      	ldr	r0, [pc, #20]	; (186c <rt_systick+0x38>)
    1858:	f7ff fd56 	bl	1308 <rt_get_first>
    185c:	e8bd 4008 	ldmia.w	sp!, {r3, lr}
    1860:	f000 bd20 	b.w	22a4 <rt_switch_req>
    1864:	1000259c 	.word	0x1000259c
    1868:	100025e4 	.word	0x100025e4
    186c:	10002550 	.word	0x10002550

00001870 <rt_stk_check>:
    1870:	4b06      	ldr	r3, [pc, #24]	; (188c <rt_stk_check+0x1c>)
    1872:	681a      	ldr	r2, [r3, #0]
    1874:	6b13      	ldr	r3, [r2, #48]	; 0x30
    1876:	6ad2      	ldr	r2, [r2, #44]	; 0x2c
    1878:	4293      	cmp	r3, r2
    187a:	d803      	bhi.n	1884 <rt_stk_check+0x14>
    187c:	681a      	ldr	r2, [r3, #0]
    187e:	4b04      	ldr	r3, [pc, #16]	; (1890 <rt_stk_check+0x20>)
    1880:	429a      	cmp	r2, r3
    1882:	d002      	beq.n	188a <rt_stk_check+0x1a>
    1884:	2001      	movs	r0, #1
    1886:	f7ff bcd9 	b.w	123c <os_error>
    188a:	4770      	bx	lr
    188c:	1000259c 	.word	0x1000259c
    1890:	e25a2ea5 	.word	0xe25a2ea5

00001894 <_init_box>:
    1894:	2a00      	cmp	r2, #0
    1896:	bfbb      	ittet	lt
    1898:	f022 4200 	biclt.w	r2, r2, #2147483648	; 0x80000000
    189c:	3207      	addlt	r2, #7
    189e:	3203      	addge	r2, #3
    18a0:	f022 0207 	biclt.w	r2, r2, #7
    18a4:	bfa8      	it	ge
    18a6:	f022 0203 	bicge.w	r2, r2, #3
    18aa:	b510      	push	{r4, lr}
    18ac:	bfb4      	ite	lt
    18ae:	2310      	movlt	r3, #16
    18b0:	230c      	movge	r3, #12
    18b2:	b192      	cbz	r2, 18da <_init_box+0x46>
    18b4:	18d4      	adds	r4, r2, r3
    18b6:	428c      	cmp	r4, r1
    18b8:	d80f      	bhi.n	18da <_init_box+0x46>
    18ba:	4401      	add	r1, r0
    18bc:	4403      	add	r3, r0
    18be:	4254      	negs	r4, r2
    18c0:	6041      	str	r1, [r0, #4]
    18c2:	6003      	str	r3, [r0, #0]
    18c4:	6082      	str	r2, [r0, #8]
    18c6:	4421      	add	r1, r4
    18c8:	1898      	adds	r0, r3, r2
    18ca:	4281      	cmp	r1, r0
    18cc:	d302      	bcc.n	18d4 <_init_box+0x40>
    18ce:	5100      	str	r0, [r0, r4]
    18d0:	4603      	mov	r3, r0
    18d2:	e7f9      	b.n	18c8 <_init_box+0x34>
    18d4:	2000      	movs	r0, #0
    18d6:	6018      	str	r0, [r3, #0]
    18d8:	bd10      	pop	{r4, pc}
    18da:	2001      	movs	r0, #1
    18dc:	bd10      	pop	{r4, pc}

000018de <rt_alloc_box>:
    18de:	f3ef 8310 	mrs	r3, PRIMASK
    18e2:	b672      	cpsid	i
    18e4:	6802      	ldr	r2, [r0, #0]
    18e6:	f003 0301 	and.w	r3, r3, #1
    18ea:	b10a      	cbz	r2, 18f0 <rt_alloc_box+0x12>
    18ec:	6811      	ldr	r1, [r2, #0]
    18ee:	6001      	str	r1, [r0, #0]
    18f0:	b903      	cbnz	r3, 18f4 <rt_alloc_box+0x16>
    18f2:	b662      	cpsie	i
    18f4:	4610      	mov	r0, r2
    18f6:	4770      	bx	lr

000018f8 <rt_free_box>:
    18f8:	4281      	cmp	r1, r0
    18fa:	d30d      	bcc.n	1918 <rt_free_box+0x20>
    18fc:	6843      	ldr	r3, [r0, #4]
    18fe:	4299      	cmp	r1, r3
    1900:	d20a      	bcs.n	1918 <rt_free_box+0x20>
    1902:	f3ef 8310 	mrs	r3, PRIMASK
    1906:	b672      	cpsid	i
    1908:	6802      	ldr	r2, [r0, #0]
    190a:	600a      	str	r2, [r1, #0]
    190c:	6001      	str	r1, [r0, #0]
    190e:	f013 0001 	ands.w	r0, r3, #1
    1912:	d103      	bne.n	191c <rt_free_box+0x24>
    1914:	b662      	cpsie	i
    1916:	4770      	bx	lr
    1918:	2001      	movs	r0, #1
    191a:	4770      	bx	lr
    191c:	2000      	movs	r0, #0
    191e:	4770      	bx	lr

00001920 <rt_mbx_init>:
    1920:	2301      	movs	r3, #1
    1922:	7003      	strb	r3, [r0, #0]
    1924:	2300      	movs	r3, #0
    1926:	3910      	subs	r1, #16
    1928:	0889      	lsrs	r1, r1, #2
    192a:	7043      	strb	r3, [r0, #1]
    192c:	7083      	strb	r3, [r0, #2]
    192e:	6043      	str	r3, [r0, #4]
    1930:	8103      	strh	r3, [r0, #8]
    1932:	8143      	strh	r3, [r0, #10]
    1934:	8183      	strh	r3, [r0, #12]
    1936:	81c1      	strh	r1, [r0, #14]
    1938:	4770      	bx	lr
	...

0000193c <rt_mbx_wait>:
    193c:	b570      	push	{r4, r5, r6, lr}
    193e:	8985      	ldrh	r5, [r0, #12]
    1940:	4604      	mov	r4, r0
    1942:	4616      	mov	r6, r2
    1944:	2d00      	cmp	r5, #0
    1946:	d038      	beq.n	19ba <rt_mbx_wait+0x7e>
    1948:	8943      	ldrh	r3, [r0, #10]
    194a:	1d1a      	adds	r2, r3, #4
    194c:	f850 2022 	ldr.w	r2, [r0, r2, lsl #2]
    1950:	3301      	adds	r3, #1
    1952:	600a      	str	r2, [r1, #0]
    1954:	89c2      	ldrh	r2, [r0, #14]
    1956:	b29b      	uxth	r3, r3
    1958:	429a      	cmp	r2, r3
    195a:	8143      	strh	r3, [r0, #10]
    195c:	bf04      	itt	eq
    195e:	2300      	moveq	r3, #0
    1960:	8143      	strheq	r3, [r0, #10]
    1962:	6843      	ldr	r3, [r0, #4]
    1964:	b1f3      	cbz	r3, 19a4 <rt_mbx_wait+0x68>
    1966:	7843      	ldrb	r3, [r0, #1]
    1968:	2b02      	cmp	r3, #2
    196a:	d11b      	bne.n	19a4 <rt_mbx_wait+0x68>
    196c:	f7ff fccc 	bl	1308 <rt_get_first>
    1970:	4605      	mov	r5, r0
    1972:	2100      	movs	r1, #0
    1974:	f7ff feee 	bl	1754 <rt_ret_val>
    1978:	8923      	ldrh	r3, [r4, #8]
    197a:	69e9      	ldr	r1, [r5, #28]
    197c:	1d1a      	adds	r2, r3, #4
    197e:	f844 1022 	str.w	r1, [r4, r2, lsl #2]
    1982:	3301      	adds	r3, #1
    1984:	89e2      	ldrh	r2, [r4, #14]
    1986:	b29b      	uxth	r3, r3
    1988:	429a      	cmp	r2, r3
    198a:	8123      	strh	r3, [r4, #8]
    198c:	bf08      	it	eq
    198e:	2300      	moveq	r3, #0
    1990:	4628      	mov	r0, r5
    1992:	bf08      	it	eq
    1994:	8123      	strheq	r3, [r4, #8]
    1996:	f7ff fd5d 	bl	1454 <rt_rmv_dly>
    199a:	4628      	mov	r0, r5
    199c:	f000 fc9c 	bl	22d8 <rt_dispatch>
    19a0:	2000      	movs	r0, #0
    19a2:	bd70      	pop	{r4, r5, r6, pc}
    19a4:	f3ef 8010 	mrs	r0, PRIMASK
    19a8:	f3ef 8310 	mrs	r3, PRIMASK
    19ac:	b672      	cpsid	i
    19ae:	3d01      	subs	r5, #1
    19b0:	81a5      	strh	r5, [r4, #12]
    19b2:	2800      	cmp	r0, #0
    19b4:	d1f4      	bne.n	19a0 <rt_mbx_wait+0x64>
    19b6:	b662      	cpsie	i
    19b8:	bd70      	pop	{r4, r5, r6, pc}
    19ba:	b14a      	cbz	r2, 19d0 <rt_mbx_wait+0x94>
    19bc:	6842      	ldr	r2, [r0, #4]
    19be:	4b09      	ldr	r3, [pc, #36]	; (19e4 <rt_mbx_wait+0xa8>)
    19c0:	b142      	cbz	r2, 19d4 <rt_mbx_wait+0x98>
    19c2:	6819      	ldr	r1, [r3, #0]
    19c4:	f7ff fc88 	bl	12d8 <rt_put_prio>
    19c8:	2108      	movs	r1, #8
    19ca:	4630      	mov	r0, r6
    19cc:	f000 fca6 	bl	231c <rt_block>
    19d0:	2001      	movs	r0, #1
    19d2:	bd70      	pop	{r4, r5, r6, pc}
    19d4:	681b      	ldr	r3, [r3, #0]
    19d6:	6043      	str	r3, [r0, #4]
    19d8:	605a      	str	r2, [r3, #4]
    19da:	6098      	str	r0, [r3, #8]
    19dc:	2301      	movs	r3, #1
    19de:	7043      	strb	r3, [r0, #1]
    19e0:	e7f2      	b.n	19c8 <rt_mbx_wait+0x8c>
    19e2:	bf00      	nop
    19e4:	1000259c 	.word	0x1000259c

000019e8 <rt_mbx_check>:
    19e8:	89c2      	ldrh	r2, [r0, #14]
    19ea:	8980      	ldrh	r0, [r0, #12]
    19ec:	1a10      	subs	r0, r2, r0
    19ee:	4770      	bx	lr

000019f0 <isr_mbx_send>:
    19f0:	b508      	push	{r3, lr}
    19f2:	f7ff fd43 	bl	147c <rt_psq_enq>
    19f6:	e8bd 4008 	ldmia.w	sp!, {r3, lr}
    19fa:	f7ff beb3 	b.w	1764 <rt_psh_req>

000019fe <isr_mbx_receive>:
    19fe:	8983      	ldrh	r3, [r0, #12]
    1a00:	b510      	push	{r4, lr}
    1a02:	4604      	mov	r4, r0
    1a04:	b30b      	cbz	r3, 1a4a <isr_mbx_receive+0x4c>
    1a06:	8943      	ldrh	r3, [r0, #10]
    1a08:	3304      	adds	r3, #4
    1a0a:	f850 3023 	ldr.w	r3, [r0, r3, lsl #2]
    1a0e:	600b      	str	r3, [r1, #0]
    1a10:	7843      	ldrb	r3, [r0, #1]
    1a12:	2b02      	cmp	r3, #2
    1a14:	d104      	bne.n	1a20 <isr_mbx_receive+0x22>
    1a16:	2100      	movs	r1, #0
    1a18:	f7ff fd30 	bl	147c <rt_psq_enq>
    1a1c:	f7ff fea2 	bl	1764 <rt_psh_req>
    1a20:	f3ef 8310 	mrs	r3, PRIMASK
    1a24:	f3ef 8210 	mrs	r2, PRIMASK
    1a28:	b672      	cpsid	i
    1a2a:	89a2      	ldrh	r2, [r4, #12]
    1a2c:	3a01      	subs	r2, #1
    1a2e:	81a2      	strh	r2, [r4, #12]
    1a30:	b903      	cbnz	r3, 1a34 <isr_mbx_receive+0x36>
    1a32:	b662      	cpsie	i
    1a34:	8963      	ldrh	r3, [r4, #10]
    1a36:	89e2      	ldrh	r2, [r4, #14]
    1a38:	3301      	adds	r3, #1
    1a3a:	b29b      	uxth	r3, r3
    1a3c:	429a      	cmp	r2, r3
    1a3e:	8163      	strh	r3, [r4, #10]
    1a40:	d101      	bne.n	1a46 <isr_mbx_receive+0x48>
    1a42:	2300      	movs	r3, #0
    1a44:	8163      	strh	r3, [r4, #10]
    1a46:	2004      	movs	r0, #4
    1a48:	bd10      	pop	{r4, pc}
    1a4a:	4618      	mov	r0, r3
    1a4c:	bd10      	pop	{r4, pc}
	...

00001a50 <rt_mbx_psh>:
    1a50:	6843      	ldr	r3, [r0, #4]
    1a52:	b570      	push	{r4, r5, r6, lr}
    1a54:	4604      	mov	r4, r0
    1a56:	460e      	mov	r6, r1
    1a58:	2b00      	cmp	r3, #0
    1a5a:	d04b      	beq.n	1af4 <rt_mbx_psh+0xa4>
    1a5c:	7845      	ldrb	r5, [r0, #1]
    1a5e:	2d02      	cmp	r5, #2
    1a60:	d020      	beq.n	1aa4 <rt_mbx_psh+0x54>
    1a62:	2d03      	cmp	r5, #3
    1a64:	d00a      	beq.n	1a7c <rt_mbx_psh+0x2c>
    1a66:	2d01      	cmp	r5, #1
    1a68:	d161      	bne.n	1b2e <rt_mbx_psh+0xde>
    1a6a:	f7ff fc4d 	bl	1308 <rt_get_first>
    1a6e:	4604      	mov	r4, r0
    1a70:	4632      	mov	r2, r6
    1a72:	2110      	movs	r1, #16
    1a74:	f7ff fe71 	bl	175a <rt_ret_val2>
    1a78:	7065      	strb	r5, [r4, #1]
    1a7a:	e00e      	b.n	1a9a <rt_mbx_psh+0x4a>
    1a7c:	4608      	mov	r0, r1
    1a7e:	f7ff ff2e 	bl	18de <rt_alloc_box>
    1a82:	4605      	mov	r5, r0
    1a84:	2800      	cmp	r0, #0
    1a86:	d052      	beq.n	1b2e <rt_mbx_psh+0xde>
    1a88:	4620      	mov	r0, r4
    1a8a:	f7ff fc3d 	bl	1308 <rt_get_first>
    1a8e:	4629      	mov	r1, r5
    1a90:	4604      	mov	r4, r0
    1a92:	f7ff fe5f 	bl	1754 <rt_ret_val>
    1a96:	2301      	movs	r3, #1
    1a98:	7063      	strb	r3, [r4, #1]
    1a9a:	4620      	mov	r0, r4
    1a9c:	f7ff fcda 	bl	1454 <rt_rmv_dly>
    1aa0:	4621      	mov	r1, r4
    1aa2:	e022      	b.n	1aea <rt_mbx_psh+0x9a>
    1aa4:	f7ff fc30 	bl	1308 <rt_get_first>
    1aa8:	4605      	mov	r5, r0
    1aaa:	2100      	movs	r1, #0
    1aac:	f7ff fe52 	bl	1754 <rt_ret_val>
    1ab0:	8923      	ldrh	r3, [r4, #8]
    1ab2:	69e9      	ldr	r1, [r5, #28]
    1ab4:	1d1a      	adds	r2, r3, #4
    1ab6:	f844 1022 	str.w	r1, [r4, r2, lsl #2]
    1aba:	f3ef 8210 	mrs	r2, PRIMASK
    1abe:	f3ef 8110 	mrs	r1, PRIMASK
    1ac2:	b672      	cpsid	i
    1ac4:	89a1      	ldrh	r1, [r4, #12]
    1ac6:	3101      	adds	r1, #1
    1ac8:	81a1      	strh	r1, [r4, #12]
    1aca:	b902      	cbnz	r2, 1ace <rt_mbx_psh+0x7e>
    1acc:	b662      	cpsie	i
    1ace:	89e2      	ldrh	r2, [r4, #14]
    1ad0:	3301      	adds	r3, #1
    1ad2:	b29b      	uxth	r3, r3
    1ad4:	429a      	cmp	r2, r3
    1ad6:	8123      	strh	r3, [r4, #8]
    1ad8:	bf04      	itt	eq
    1ada:	2300      	moveq	r3, #0
    1adc:	8123      	strheq	r3, [r4, #8]
    1ade:	2301      	movs	r3, #1
    1ae0:	4628      	mov	r0, r5
    1ae2:	706b      	strb	r3, [r5, #1]
    1ae4:	f7ff fcb6 	bl	1454 <rt_rmv_dly>
    1ae8:	4629      	mov	r1, r5
    1aea:	e8bd 4070 	ldmia.w	sp!, {r4, r5, r6, lr}
    1aee:	4810      	ldr	r0, [pc, #64]	; (1b30 <rt_mbx_psh+0xe0>)
    1af0:	f7ff bbf2 	b.w	12d8 <rt_put_prio>
    1af4:	8980      	ldrh	r0, [r0, #12]
    1af6:	89e1      	ldrh	r1, [r4, #14]
    1af8:	4288      	cmp	r0, r1
    1afa:	d213      	bcs.n	1b24 <rt_mbx_psh+0xd4>
    1afc:	8923      	ldrh	r3, [r4, #8]
    1afe:	1d1a      	adds	r2, r3, #4
    1b00:	f844 6022 	str.w	r6, [r4, r2, lsl #2]
    1b04:	f3ef 8210 	mrs	r2, PRIMASK
    1b08:	f3ef 8510 	mrs	r5, PRIMASK
    1b0c:	b672      	cpsid	i
    1b0e:	3001      	adds	r0, #1
    1b10:	81a0      	strh	r0, [r4, #12]
    1b12:	b902      	cbnz	r2, 1b16 <rt_mbx_psh+0xc6>
    1b14:	b662      	cpsie	i
    1b16:	3301      	adds	r3, #1
    1b18:	b29b      	uxth	r3, r3
    1b1a:	4299      	cmp	r1, r3
    1b1c:	bf08      	it	eq
    1b1e:	2300      	moveq	r3, #0
    1b20:	8123      	strh	r3, [r4, #8]
    1b22:	bd70      	pop	{r4, r5, r6, pc}
    1b24:	2003      	movs	r0, #3
    1b26:	e8bd 4070 	ldmia.w	sp!, {r4, r5, r6, lr}
    1b2a:	f7ff bb87 	b.w	123c <os_error>
    1b2e:	bd70      	pop	{r4, r5, r6, pc}
    1b30:	10002550 	.word	0x10002550

00001b34 <rt_evt_psh>:
    1b34:	b510      	push	{r4, lr}
    1b36:	8b03      	ldrh	r3, [r0, #24]
    1b38:	7842      	ldrb	r2, [r0, #1]
    1b3a:	4319      	orrs	r1, r3
    1b3c:	2a06      	cmp	r2, #6
    1b3e:	4604      	mov	r4, r0
    1b40:	8301      	strh	r1, [r0, #24]
    1b42:	8b43      	ldrh	r3, [r0, #26]
    1b44:	d115      	bne.n	1b72 <rt_evt_psh+0x3e>
    1b46:	ea33 0201 	bics.w	r2, r3, r1
    1b4a:	d119      	bne.n	1b80 <rt_evt_psh+0x4c>
    1b4c:	ea21 0103 	bic.w	r1, r1, r3
    1b50:	8321      	strh	r1, [r4, #24]
    1b52:	4620      	mov	r0, r4
    1b54:	f7ff fc7e 	bl	1454 <rt_rmv_dly>
    1b58:	2301      	movs	r3, #1
    1b5a:	4620      	mov	r0, r4
    1b5c:	7063      	strb	r3, [r4, #1]
    1b5e:	8b62      	ldrh	r2, [r4, #26]
    1b60:	2108      	movs	r1, #8
    1b62:	f7ff fdfa 	bl	175a <rt_ret_val2>
    1b66:	4621      	mov	r1, r4
    1b68:	e8bd 4010 	ldmia.w	sp!, {r4, lr}
    1b6c:	4805      	ldr	r0, [pc, #20]	; (1b84 <rt_evt_psh+0x50>)
    1b6e:	f7ff bbb3 	b.w	12d8 <rt_put_prio>
    1b72:	2a05      	cmp	r2, #5
    1b74:	d104      	bne.n	1b80 <rt_evt_psh+0x4c>
    1b76:	ea11 0203 	ands.w	r2, r1, r3
    1b7a:	d001      	beq.n	1b80 <rt_evt_psh+0x4c>
    1b7c:	8342      	strh	r2, [r0, #26]
    1b7e:	e7e5      	b.n	1b4c <rt_evt_psh+0x18>
    1b80:	bd10      	pop	{r4, pc}
    1b82:	bf00      	nop
    1b84:	10002550 	.word	0x10002550

00001b88 <rt_init_robin>:
    1b88:	2200      	movs	r2, #0
    1b8a:	4b03      	ldr	r3, [pc, #12]	; (1b98 <rt_init_robin+0x10>)
    1b8c:	601a      	str	r2, [r3, #0]
    1b8e:	4a03      	ldr	r2, [pc, #12]	; (1b9c <rt_init_robin+0x14>)
    1b90:	6812      	ldr	r2, [r2, #0]
    1b92:	80da      	strh	r2, [r3, #6]
    1b94:	4770      	bx	lr
    1b96:	bf00      	nop
    1b98:	10002588 	.word	0x10002588
    1b9c:	0000719c 	.word	0x0000719c

00001ba0 <rt_chk_robin>:
    1ba0:	b508      	push	{r3, lr}
    1ba2:	4b0e      	ldr	r3, [pc, #56]	; (1bdc <rt_chk_robin+0x3c>)
    1ba4:	685a      	ldr	r2, [r3, #4]
    1ba6:	4b0e      	ldr	r3, [pc, #56]	; (1be0 <rt_chk_robin+0x40>)
    1ba8:	6819      	ldr	r1, [r3, #0]
    1baa:	4291      	cmp	r1, r2
    1bac:	490d      	ldr	r1, [pc, #52]	; (1be4 <rt_chk_robin+0x44>)
    1bae:	d005      	beq.n	1bbc <rt_chk_robin+0x1c>
    1bb0:	601a      	str	r2, [r3, #0]
    1bb2:	88da      	ldrh	r2, [r3, #6]
    1bb4:	6808      	ldr	r0, [r1, #0]
    1bb6:	3a01      	subs	r2, #1
    1bb8:	4402      	add	r2, r0
    1bba:	809a      	strh	r2, [r3, #4]
    1bbc:	8898      	ldrh	r0, [r3, #4]
    1bbe:	880a      	ldrh	r2, [r1, #0]
    1bc0:	4290      	cmp	r0, r2
    1bc2:	d10a      	bne.n	1bda <rt_chk_robin+0x3a>
    1bc4:	2200      	movs	r2, #0
    1bc6:	4805      	ldr	r0, [pc, #20]	; (1bdc <rt_chk_robin+0x3c>)
    1bc8:	601a      	str	r2, [r3, #0]
    1bca:	f7ff fb9d 	bl	1308 <rt_get_first>
    1bce:	e8bd 4008 	ldmia.w	sp!, {r3, lr}
    1bd2:	4601      	mov	r1, r0
    1bd4:	4801      	ldr	r0, [pc, #4]	; (1bdc <rt_chk_robin+0x3c>)
    1bd6:	f7ff bb7f 	b.w	12d8 <rt_put_prio>
    1bda:	bd08      	pop	{r3, pc}
    1bdc:	10002550 	.word	0x10002550
    1be0:	10002588 	.word	0x10002588
    1be4:	100025e4 	.word	0x100025e4

00001be8 <rt_timer_insert>:
    1be8:	b530      	push	{r4, r5, lr}
    1bea:	2400      	movs	r4, #0
    1bec:	4a0a      	ldr	r2, [pc, #40]	; (1c18 <rt_timer_insert+0x30>)
    1bee:	6813      	ldr	r3, [r2, #0]
    1bf0:	b943      	cbnz	r3, 1c04 <rt_timer_insert+0x1c>
    1bf2:	6003      	str	r3, [r0, #0]
    1bf4:	6081      	str	r1, [r0, #8]
    1bf6:	b113      	cbz	r3, 1bfe <rt_timer_insert+0x16>
    1bf8:	689d      	ldr	r5, [r3, #8]
    1bfa:	1a69      	subs	r1, r5, r1
    1bfc:	6099      	str	r1, [r3, #8]
    1bfe:	b144      	cbz	r4, 1c12 <rt_timer_insert+0x2a>
    1c00:	6020      	str	r0, [r4, #0]
    1c02:	bd30      	pop	{r4, r5, pc}
    1c04:	689d      	ldr	r5, [r3, #8]
    1c06:	42a9      	cmp	r1, r5
    1c08:	d3f3      	bcc.n	1bf2 <rt_timer_insert+0xa>
    1c0a:	461c      	mov	r4, r3
    1c0c:	1b49      	subs	r1, r1, r5
    1c0e:	681b      	ldr	r3, [r3, #0]
    1c10:	e7ee      	b.n	1bf0 <rt_timer_insert+0x8>
    1c12:	6010      	str	r0, [r2, #0]
    1c14:	bd30      	pop	{r4, r5, pc}
    1c16:	bf00      	nop
    1c18:	10002598 	.word	0x10002598

00001c1c <rt_ms2tick>:
    1c1c:	b1c0      	cbz	r0, 1c50 <rt_ms2tick+0x34>
    1c1e:	1c43      	adds	r3, r0, #1
    1c20:	d011      	beq.n	1c46 <rt_ms2tick+0x2a>
    1c22:	4b0c      	ldr	r3, [pc, #48]	; (1c54 <rt_ms2tick+0x38>)
    1c24:	4298      	cmp	r0, r3
    1c26:	d811      	bhi.n	1c4c <rt_ms2tick+0x30>
    1c28:	f44f 717a 	mov.w	r1, #1000	; 0x3e8
    1c2c:	4b0a      	ldr	r3, [pc, #40]	; (1c58 <rt_ms2tick+0x3c>)
    1c2e:	681b      	ldr	r3, [r3, #0]
    1c30:	1e5a      	subs	r2, r3, #1
    1c32:	fb01 2000 	mla	r0, r1, r0, r2
    1c36:	fbb0 f3f3 	udiv	r3, r0, r3
    1c3a:	f64f 70fe 	movw	r0, #65534	; 0xfffe
    1c3e:	4283      	cmp	r3, r0
    1c40:	d806      	bhi.n	1c50 <rt_ms2tick+0x34>
    1c42:	b298      	uxth	r0, r3
    1c44:	4770      	bx	lr
    1c46:	f64f 70ff 	movw	r0, #65535	; 0xffff
    1c4a:	4770      	bx	lr
    1c4c:	f64f 70fe 	movw	r0, #65534	; 0xfffe
    1c50:	4770      	bx	lr
    1c52:	bf00      	nop
    1c54:	003d0900 	.word	0x003d0900
    1c58:	00007154 	.word	0x00007154

00001c5c <rt_tid2ptcb>:
    1c5c:	b138      	cbz	r0, 1c6e <rt_tid2ptcb+0x12>
    1c5e:	0783      	lsls	r3, r0, #30
    1c60:	d104      	bne.n	1c6c <rt_tid2ptcb+0x10>
    1c62:	7803      	ldrb	r3, [r0, #0]
    1c64:	2b00      	cmp	r3, #0
    1c66:	bf18      	it	ne
    1c68:	2000      	movne	r0, #0
    1c6a:	4770      	bx	lr
    1c6c:	2000      	movs	r0, #0
    1c6e:	4770      	bx	lr

00001c70 <svcKernelStart>:
    1c70:	b5b0      	push	{r4, r5, r7, lr}
    1c72:	4d0e      	ldr	r5, [pc, #56]	; (1cac <svcKernelStart+0x3c>)
    1c74:	af00      	add	r7, sp, #0
    1c76:	7828      	ldrb	r0, [r5, #0]
    1c78:	b9a8      	cbnz	r0, 1ca6 <svcKernelStart+0x36>
    1c7a:	4c0d      	ldr	r4, [pc, #52]	; (1cb0 <svcKernelStart+0x40>)
    1c7c:	6823      	ldr	r3, [r4, #0]
    1c7e:	f893 1024 	ldrb.w	r1, [r3, #36]	; 0x24
    1c82:	f000 fb6d 	bl	2360 <rt_tsk_prio>
    1c86:	6823      	ldr	r3, [r4, #0]
    1c88:	78da      	ldrb	r2, [r3, #3]
    1c8a:	2aff      	cmp	r2, #255	; 0xff
    1c8c:	d103      	bne.n	1c96 <svcKernelStart+0x26>
    1c8e:	6ada      	ldr	r2, [r3, #44]	; 0x2c
    1c90:	3220      	adds	r2, #32
    1c92:	f382 8809 	msr	PSP, r2
    1c96:	6862      	ldr	r2, [r4, #4]
    1c98:	b90a      	cbnz	r2, 1c9e <svcKernelStart+0x2e>
    1c9a:	e884 000c 	stmia.w	r4, {r2, r3}
    1c9e:	f000 fd17 	bl	26d0 <rt_sys_start>
    1ca2:	2301      	movs	r3, #1
    1ca4:	702b      	strb	r3, [r5, #0]
    1ca6:	2000      	movs	r0, #0
    1ca8:	bdb0      	pop	{r4, r5, r7, pc}
    1caa:	bf00      	nop
    1cac:	10002595 	.word	0x10002595
    1cb0:	1000259c 	.word	0x1000259c

00001cb4 <svcKernelRunning>:
    1cb4:	4b01      	ldr	r3, [pc, #4]	; (1cbc <svcKernelRunning+0x8>)
    1cb6:	7818      	ldrb	r0, [r3, #0]
    1cb8:	4770      	bx	lr
    1cba:	bf00      	nop
    1cbc:	10002595 	.word	0x10002595

00001cc0 <osKernelRunning>:
    1cc0:	b510      	push	{r4, lr}
    1cc2:	f3ef 8410 	mrs	r4, PRIMASK
    1cc6:	b934      	cbnz	r4, 1cd6 <osKernelRunning+0x16>
    1cc8:	f3ef 8405 	mrs	r4, IPSR
    1ccc:	b91c      	cbnz	r4, 1cd6 <osKernelRunning+0x16>
    1cce:	f3ef 8414 	mrs	r4, CONTROL
    1cd2:	07e4      	lsls	r4, r4, #31
    1cd4:	d402      	bmi.n	1cdc <osKernelRunning+0x1c>
    1cd6:	4b03      	ldr	r3, [pc, #12]	; (1ce4 <osKernelRunning+0x24>)
    1cd8:	7818      	ldrb	r0, [r3, #0]
    1cda:	bd10      	pop	{r4, pc}
    1cdc:	f8df c008 	ldr.w	r12, [pc, #8]	; 1ce8 <osKernelRunning+0x28>
    1ce0:	df00      	svc	0
    1ce2:	bd10      	pop	{r4, pc}
    1ce4:	10002595 	.word	0x10002595
    1ce8:	00001cb5 	.word	0x00001cb5

00001cec <osKernelStart>:
    1cec:	b590      	push	{r4, r7, lr}
    1cee:	b089      	sub	sp, #36	; 0x24
    1cf0:	af00      	add	r7, sp, #0
    1cf2:	f3ef 8310 	mrs	r3, PRIMASK
    1cf6:	2b00      	cmp	r3, #0
    1cf8:	d137      	bne.n	1d6a <osKernelStart+0x7e>
    1cfa:	f3ef 8305 	mrs	r3, IPSR
    1cfe:	2b00      	cmp	r3, #0
    1d00:	d133      	bne.n	1d6a <osKernelStart+0x7e>
    1d02:	f7ff ffdd 	bl	1cc0 <osKernelRunning>
    1d06:	b928      	cbnz	r0, 1d14 <osKernelStart+0x28>
    1d08:	4c19      	ldr	r4, [pc, #100]	; (1d70 <osKernelStart+0x84>)
    1d0a:	6824      	ldr	r4, [r4, #0]
    1d0c:	b114      	cbz	r4, 1d14 <osKernelStart+0x28>
    1d0e:	6864      	ldr	r4, [r4, #4]
    1d10:	b104      	cbz	r4, 1d14 <osKernelStart+0x28>
    1d12:	47a0      	blx	r4
    1d14:	f3ef 8414 	mrs	r4, CONTROL
    1d18:	f004 0403 	and.w	r4, r4, #3
    1d1c:	2c02      	cmp	r4, #2
    1d1e:	d018      	beq.n	1d52 <osKernelStart+0x66>
    1d20:	2c03      	cmp	r4, #3
    1d22:	d01c      	beq.n	1d5e <osKernelStart+0x72>
    1d24:	2c01      	cmp	r4, #1
    1d26:	d01e      	beq.n	1d66 <osKernelStart+0x7a>
    1d28:	f107 0420 	add.w	r4, r7, #32
    1d2c:	f384 8809 	msr	PSP, r4
    1d30:	4c10      	ldr	r4, [pc, #64]	; (1d74 <osKernelStart+0x88>)
    1d32:	7824      	ldrb	r4, [r4, #0]
    1d34:	07e4      	lsls	r4, r4, #31
    1d36:	d510      	bpl.n	1d5a <osKernelStart+0x6e>
    1d38:	2402      	movs	r4, #2
    1d3a:	f384 8814 	msr	CONTROL, r4
    1d3e:	f3bf 8f4f 	dsb	sy
    1d42:	f3bf 8f6f 	isb	sy
    1d46:	f8df c030 	ldr.w	r12, [pc, #48]	; 1d78 <osKernelStart+0x8c>
    1d4a:	df00      	svc	0
    1d4c:	3724      	adds	r7, #36	; 0x24
    1d4e:	46bd      	mov	sp, r7
    1d50:	bd90      	pop	{r4, r7, pc}
    1d52:	4c08      	ldr	r4, [pc, #32]	; (1d74 <osKernelStart+0x88>)
    1d54:	7824      	ldrb	r4, [r4, #0]
    1d56:	07e4      	lsls	r4, r4, #31
    1d58:	d4f5      	bmi.n	1d46 <osKernelStart+0x5a>
    1d5a:	2403      	movs	r4, #3
    1d5c:	e7ed      	b.n	1d3a <osKernelStart+0x4e>
    1d5e:	4c05      	ldr	r4, [pc, #20]	; (1d74 <osKernelStart+0x88>)
    1d60:	7824      	ldrb	r4, [r4, #0]
    1d62:	07e4      	lsls	r4, r4, #31
    1d64:	d5ef      	bpl.n	1d46 <osKernelStart+0x5a>
    1d66:	20ff      	movs	r0, #255	; 0xff
    1d68:	e7f0      	b.n	1d4c <osKernelStart+0x60>
    1d6a:	2082      	movs	r0, #130	; 0x82
    1d6c:	e7ee      	b.n	1d4c <osKernelStart+0x60>
    1d6e:	bf00      	nop
    1d70:	10002584 	.word	0x10002584
    1d74:	00007182 	.word	0x00007182
    1d78:	00001c71 	.word	0x00001c71

00001d7c <svcThreadCreate>:
    1d7c:	b570      	push	{r4, r5, r6, lr}
    1d7e:	460b      	mov	r3, r1
    1d80:	4616      	mov	r6, r2
    1d82:	4602      	mov	r2, r0
    1d84:	b910      	cbnz	r0, 1d8c <svcThreadCreate+0x10>
    1d86:	2400      	movs	r4, #0
    1d88:	4620      	mov	r0, r4
    1d8a:	bd70      	pop	{r4, r5, r6, pc}
    1d8c:	6800      	ldr	r0, [r0, #0]
    1d8e:	2800      	cmp	r0, #0
    1d90:	d0f9      	beq.n	1d86 <svcThreadCreate+0xa>
    1d92:	f9b2 4004 	ldrsh.w	r4, [r2, #4]
    1d96:	1ce5      	adds	r5, r4, #3
    1d98:	b2ad      	uxth	r5, r5
    1d9a:	2d06      	cmp	r5, #6
    1d9c:	d8f3      	bhi.n	1d86 <svcThreadCreate+0xa>
    1d9e:	68d1      	ldr	r1, [r2, #12]
    1da0:	b1c1      	cbz	r1, 1dd4 <svcThreadCreate+0x58>
    1da2:	6912      	ldr	r2, [r2, #16]
    1da4:	3404      	adds	r4, #4
    1da6:	ea44 2101 	orr.w	r1, r4, r1, lsl #8
    1daa:	f000 fb17 	bl	23dc <rt_tsk_create>
    1dae:	2800      	cmp	r0, #0
    1db0:	d0e9      	beq.n	1d86 <svcThreadCreate+0xa>
    1db2:	4b0a      	ldr	r3, [pc, #40]	; (1ddc <svcThreadCreate+0x60>)
    1db4:	3801      	subs	r0, #1
    1db6:	f853 4020 	ldr.w	r4, [r3, r0, lsl #2]
    1dba:	4a09      	ldr	r2, [pc, #36]	; (1de0 <svcThreadCreate+0x64>)
    1dbc:	6ae3      	ldr	r3, [r4, #44]	; 0x2c
    1dbe:	635a      	str	r2, [r3, #52]	; 0x34
    1dc0:	4b08      	ldr	r3, [pc, #32]	; (1de4 <svcThreadCreate+0x68>)
    1dc2:	681b      	ldr	r3, [r3, #0]
    1dc4:	b143      	cbz	r3, 1dd8 <svcThreadCreate+0x5c>
    1dc6:	689b      	ldr	r3, [r3, #8]
    1dc8:	b133      	cbz	r3, 1dd8 <svcThreadCreate+0x5c>
    1dca:	4631      	mov	r1, r6
    1dcc:	78e0      	ldrb	r0, [r4, #3]
    1dce:	4798      	blx	r3
    1dd0:	63e0      	str	r0, [r4, #60]	; 0x3c
    1dd2:	e7d9      	b.n	1d88 <svcThreadCreate+0xc>
    1dd4:	460a      	mov	r2, r1
    1dd6:	e7e5      	b.n	1da4 <svcThreadCreate+0x28>
    1dd8:	63e6      	str	r6, [r4, #60]	; 0x3c
    1dda:	e7d5      	b.n	1d88 <svcThreadCreate+0xc>
    1ddc:	10001d98 	.word	0x10001d98
    1de0:	00001f85 	.word	0x00001f85
    1de4:	10002584 	.word	0x10002584

00001de8 <svcThreadGetId>:
    1de8:	b508      	push	{r3, lr}
    1dea:	f000 fab1 	bl	2350 <rt_tsk_self>
    1dee:	b118      	cbz	r0, 1df8 <svcThreadGetId+0x10>
    1df0:	4b02      	ldr	r3, [pc, #8]	; (1dfc <svcThreadGetId+0x14>)
    1df2:	3801      	subs	r0, #1
    1df4:	f853 0020 	ldr.w	r0, [r3, r0, lsl #2]
    1df8:	bd08      	pop	{r3, pc}
    1dfa:	bf00      	nop
    1dfc:	10001d98 	.word	0x10001d98

00001e00 <svcThreadTerminate>:
    1e00:	b510      	push	{r4, lr}
    1e02:	f7ff ff2b 	bl	1c5c <rt_tid2ptcb>
    1e06:	4604      	mov	r4, r0
    1e08:	b170      	cbz	r0, 1e28 <svcThreadTerminate+0x28>
    1e0a:	4b08      	ldr	r3, [pc, #32]	; (1e2c <svcThreadTerminate+0x2c>)
    1e0c:	681b      	ldr	r3, [r3, #0]
    1e0e:	b11b      	cbz	r3, 1e18 <svcThreadTerminate+0x18>
    1e10:	68db      	ldr	r3, [r3, #12]
    1e12:	b10b      	cbz	r3, 1e18 <svcThreadTerminate+0x18>
    1e14:	6bc0      	ldr	r0, [r0, #60]	; 0x3c
    1e16:	4798      	blx	r3
    1e18:	78e0      	ldrb	r0, [r4, #3]
    1e1a:	f000 fb35 	bl	2488 <rt_tsk_delete>
    1e1e:	28ff      	cmp	r0, #255	; 0xff
    1e20:	bf0c      	ite	eq
    1e22:	2081      	moveq	r0, #129	; 0x81
    1e24:	2000      	movne	r0, #0
    1e26:	bd10      	pop	{r4, pc}
    1e28:	2080      	movs	r0, #128	; 0x80
    1e2a:	bd10      	pop	{r4, pc}
    1e2c:	10002584 	.word	0x10002584

00001e30 <svcDelay>:
    1e30:	b508      	push	{r3, lr}
    1e32:	b128      	cbz	r0, 1e40 <svcDelay+0x10>
    1e34:	f7ff fef2 	bl	1c1c <rt_ms2tick>
    1e38:	f000 fc90 	bl	275c <rt_dly_wait>
    1e3c:	2040      	movs	r0, #64	; 0x40
    1e3e:	bd08      	pop	{r3, pc}
    1e40:	bd08      	pop	{r3, pc}
	...

00001e44 <osDelay>:
    1e44:	b510      	push	{r4, lr}
    1e46:	f3ef 8410 	mrs	r4, PRIMASK
    1e4a:	b934      	cbnz	r4, 1e5a <osDelay+0x16>
    1e4c:	f3ef 8405 	mrs	r4, IPSR
    1e50:	b91c      	cbnz	r4, 1e5a <osDelay+0x16>
    1e52:	f8df c00c 	ldr.w	r12, [pc, #12]	; 1e60 <osDelay+0x1c>
    1e56:	df00      	svc	0
    1e58:	bd10      	pop	{r4, pc}
    1e5a:	2082      	movs	r0, #130	; 0x82
    1e5c:	bd10      	pop	{r4, pc}
    1e5e:	0000      	.short	0x0000
    1e60:	00001e31 	.word	0x00001e31

00001e64 <svcTimerCall>:
    1e64:	0783      	lsls	r3, r0, #30
    1e66:	d105      	bne.n	1e74 <svcTimerCall+0x10>
    1e68:	b138      	cbz	r0, 1e7a <svcTimerCall+0x16>
    1e6a:	6943      	ldr	r3, [r0, #20]
    1e6c:	6901      	ldr	r1, [r0, #16]
    1e6e:	681b      	ldr	r3, [r3, #0]
    1e70:	4618      	mov	r0, r3
    1e72:	4770      	bx	lr
    1e74:	2300      	movs	r3, #0
    1e76:	4619      	mov	r1, r3
    1e78:	e7fa      	b.n	1e70 <svcTimerCall+0xc>
    1e7a:	4603      	mov	r3, r0
    1e7c:	e7fb      	b.n	1e76 <svcTimerCall+0x12>
	...

00001e80 <osTimerCall>:
    1e80:	b510      	push	{r4, lr}
    1e82:	4604      	mov	r4, r0
    1e84:	4608      	mov	r0, r1
    1e86:	f8df c00c 	ldr.w	r12, [pc, #12]	; 1e94 <osTimerCall+0x14>
    1e8a:	df00      	svc	0
    1e8c:	e884 0003 	stmia.w	r4, {r0, r1}
    1e90:	4620      	mov	r0, r4
    1e92:	bd10      	pop	{r4, pc}
    1e94:	00001e65 	.word	0x00001e65

00001e98 <svcMutexCreate>:
    1e98:	b510      	push	{r4, lr}
    1e9a:	b148      	cbz	r0, 1eb0 <svcMutexCreate+0x18>
    1e9c:	6804      	ldr	r4, [r0, #0]
    1e9e:	b124      	cbz	r4, 1eaa <svcMutexCreate+0x12>
    1ea0:	7823      	ldrb	r3, [r4, #0]
    1ea2:	b923      	cbnz	r3, 1eae <svcMutexCreate+0x16>
    1ea4:	4620      	mov	r0, r4
    1ea6:	f7ff fb0f 	bl	14c8 <rt_mut_init>
    1eaa:	4620      	mov	r0, r4
    1eac:	bd10      	pop	{r4, pc}
    1eae:	2000      	movs	r0, #0
    1eb0:	bd10      	pop	{r4, pc}

00001eb2 <svcMutexWait>:
    1eb2:	b570      	push	{r4, r5, r6, lr}
    1eb4:	f010 0403 	ands.w	r4, r0, #3
    1eb8:	4605      	mov	r5, r0
    1eba:	460e      	mov	r6, r1
    1ebc:	d111      	bne.n	1ee2 <svcMutexWait+0x30>
    1ebe:	b180      	cbz	r0, 1ee2 <svcMutexWait+0x30>
    1ec0:	7803      	ldrb	r3, [r0, #0]
    1ec2:	2b03      	cmp	r3, #3
    1ec4:	d10d      	bne.n	1ee2 <svcMutexWait+0x30>
    1ec6:	4608      	mov	r0, r1
    1ec8:	f7ff fea8 	bl	1c1c <rt_ms2tick>
    1ecc:	4601      	mov	r1, r0
    1ece:	4628      	mov	r0, r5
    1ed0:	f7ff fbc8 	bl	1664 <rt_mut_wait>
    1ed4:	2801      	cmp	r0, #1
    1ed6:	d106      	bne.n	1ee6 <svcMutexWait+0x34>
    1ed8:	2e00      	cmp	r6, #0
    1eda:	bf14      	ite	ne
    1edc:	20c1      	movne	r0, #193	; 0xc1
    1ede:	2081      	moveq	r0, #129	; 0x81
    1ee0:	bd70      	pop	{r4, r5, r6, pc}
    1ee2:	2080      	movs	r0, #128	; 0x80
    1ee4:	bd70      	pop	{r4, r5, r6, pc}
    1ee6:	4620      	mov	r0, r4
    1ee8:	bd70      	pop	{r4, r5, r6, pc}

00001eea <svcMutexRelease>:
    1eea:	0782      	lsls	r2, r0, #30
    1eec:	b508      	push	{r3, lr}
    1eee:	d10a      	bne.n	1f06 <svcMutexRelease+0x1c>
    1ef0:	b148      	cbz	r0, 1f06 <svcMutexRelease+0x1c>
    1ef2:	7803      	ldrb	r3, [r0, #0]
    1ef4:	2b03      	cmp	r3, #3
    1ef6:	d106      	bne.n	1f06 <svcMutexRelease+0x1c>
    1ef8:	f7ff fb44 	bl	1584 <rt_mut_release>
    1efc:	28ff      	cmp	r0, #255	; 0xff
    1efe:	bf0c      	ite	eq
    1f00:	2081      	moveq	r0, #129	; 0x81
    1f02:	2000      	movne	r0, #0
    1f04:	bd08      	pop	{r3, pc}
    1f06:	2080      	movs	r0, #128	; 0x80
    1f08:	bd08      	pop	{r3, pc}

00001f0a <svcMutexDelete>:
    1f0a:	b510      	push	{r4, lr}
    1f0c:	f010 0403 	ands.w	r4, r0, #3
    1f10:	d107      	bne.n	1f22 <svcMutexDelete+0x18>
    1f12:	b130      	cbz	r0, 1f22 <svcMutexDelete+0x18>
    1f14:	7803      	ldrb	r3, [r0, #0]
    1f16:	2b03      	cmp	r3, #3
    1f18:	d103      	bne.n	1f22 <svcMutexDelete+0x18>
    1f1a:	f7ff fadd 	bl	14d8 <rt_mut_delete>
    1f1e:	4620      	mov	r0, r4
    1f20:	bd10      	pop	{r4, pc}
    1f22:	2080      	movs	r0, #128	; 0x80
    1f24:	bd10      	pop	{r4, pc}
	...

00001f28 <osMutexCreate>:
    1f28:	b570      	push	{r4, r5, r6, lr}
    1f2a:	4605      	mov	r5, r0
    1f2c:	f3ef 8410 	mrs	r4, PRIMASK
    1f30:	b994      	cbnz	r4, 1f58 <osMutexCreate+0x30>
    1f32:	f3ef 8605 	mrs	r6, IPSR
    1f36:	b97e      	cbnz	r6, 1f58 <osMutexCreate+0x30>
    1f38:	f3ef 8414 	mrs	r4, CONTROL
    1f3c:	07e4      	lsls	r4, r4, #31
    1f3e:	d406      	bmi.n	1f4e <osMutexCreate+0x26>
    1f40:	4c06      	ldr	r4, [pc, #24]	; (1f5c <osMutexCreate+0x34>)
    1f42:	7824      	ldrb	r4, [r4, #0]
    1f44:	b91c      	cbnz	r4, 1f4e <osMutexCreate+0x26>
    1f46:	e8bd 4070 	ldmia.w	sp!, {r4, r5, r6, lr}
    1f4a:	f7ff bfa5 	b.w	1e98 <svcMutexCreate>
    1f4e:	4628      	mov	r0, r5
    1f50:	f8df c00c 	ldr.w	r12, [pc, #12]	; 1f60 <osMutexCreate+0x38>
    1f54:	df00      	svc	0
    1f56:	bd70      	pop	{r4, r5, r6, pc}
    1f58:	2000      	movs	r0, #0
    1f5a:	bd70      	pop	{r4, r5, r6, pc}
    1f5c:	10002595 	.word	0x10002595
    1f60:	00001e99 	.word	0x00001e99

00001f64 <osMutexWait>:
    1f64:	b510      	push	{r4, lr}
    1f66:	f3ef 8410 	mrs	r4, PRIMASK
    1f6a:	b934      	cbnz	r4, 1f7a <osMutexWait+0x16>
    1f6c:	f3ef 8405 	mrs	r4, IPSR
    1f70:	b91c      	cbnz	r4, 1f7a <osMutexWait+0x16>
    1f72:	f8df c00c 	ldr.w	r12, [pc, #12]	; 1f80 <osMutexWait+0x1c>
    1f76:	df00      	svc	0
    1f78:	bd10      	pop	{r4, pc}
    1f7a:	2082      	movs	r0, #130	; 0x82
    1f7c:	bd10      	pop	{r4, pc}
    1f7e:	0000      	.short	0x0000
    1f80:	00001eb3 	.word	0x00001eb3

00001f84 <osThreadExit>:
    1f84:	4808      	ldr	r0, [pc, #32]	; (1fa8 <osThreadExit+0x24>)
    1f86:	b508      	push	{r3, lr}
    1f88:	f04f 31ff 	mov.w	r1, #4294967295	; 0xffffffff
    1f8c:	6800      	ldr	r0, [r0, #0]
    1f8e:	f7ff ffe9 	bl	1f64 <osMutexWait>
    1f92:	f8df c018 	ldr.w	r12, [pc, #24]	; 1fac <osThreadExit+0x28>
    1f96:	df00      	svc	0
    1f98:	4604      	mov	r4, r0
    1f9a:	f7ff f95d 	bl	1258 <sysThreadTerminate>
    1f9e:	4620      	mov	r0, r4
    1fa0:	f8df c00c 	ldr.w	r12, [pc, #12]	; 1fb0 <osThreadExit+0x2c>
    1fa4:	df00      	svc	0
    1fa6:	e7fe      	b.n	1fa6 <osThreadExit+0x22>
    1fa8:	10002590 	.word	0x10002590
    1fac:	00001de9 	.word	0x00001de9
    1fb0:	00001e01 	.word	0x00001e01

00001fb4 <osMutexRelease>:
    1fb4:	b510      	push	{r4, lr}
    1fb6:	f3ef 8410 	mrs	r4, PRIMASK
    1fba:	b934      	cbnz	r4, 1fca <osMutexRelease+0x16>
    1fbc:	f3ef 8405 	mrs	r4, IPSR
    1fc0:	b91c      	cbnz	r4, 1fca <osMutexRelease+0x16>
    1fc2:	f8df c00c 	ldr.w	r12, [pc, #12]	; 1fd0 <osMutexRelease+0x1c>
    1fc6:	df00      	svc	0
    1fc8:	bd10      	pop	{r4, pc}
    1fca:	2082      	movs	r0, #130	; 0x82
    1fcc:	bd10      	pop	{r4, pc}
    1fce:	0000      	.short	0x0000
    1fd0:	00001eeb 	.word	0x00001eeb

00001fd4 <osThreadContextCreate>:
    1fd4:	e92d 41f0 	stmdb	sp!, {r4, r5, r6, r7, r8, lr}
    1fd8:	4680      	mov	r8, r0
    1fda:	460f      	mov	r7, r1
    1fdc:	4616      	mov	r6, r2
    1fde:	f3ef 8410 	mrs	r4, PRIMASK
    1fe2:	bb04      	cbnz	r4, 2026 <osThreadContextCreate+0x52>
    1fe4:	f3ef 8305 	mrs	r3, IPSR
    1fe8:	b9d3      	cbnz	r3, 2020 <osThreadContextCreate+0x4c>
    1fea:	f3ef 8314 	mrs	r3, CONTROL
    1fee:	07db      	lsls	r3, r3, #31
    1ff0:	d406      	bmi.n	2000 <osThreadContextCreate+0x2c>
    1ff2:	4b0e      	ldr	r3, [pc, #56]	; (202c <osThreadContextCreate+0x58>)
    1ff4:	781b      	ldrb	r3, [r3, #0]
    1ff6:	b91b      	cbnz	r3, 2000 <osThreadContextCreate+0x2c>
    1ff8:	e8bd 41f0 	ldmia.w	sp!, {r4, r5, r6, r7, r8, lr}
    1ffc:	f7ff bebe 	b.w	1d7c <svcThreadCreate>
    2000:	4d0b      	ldr	r5, [pc, #44]	; (2030 <osThreadContextCreate+0x5c>)
    2002:	f04f 31ff 	mov.w	r1, #4294967295	; 0xffffffff
    2006:	6828      	ldr	r0, [r5, #0]
    2008:	f7ff ffac 	bl	1f64 <osMutexWait>
    200c:	4640      	mov	r0, r8
    200e:	4639      	mov	r1, r7
    2010:	4632      	mov	r2, r6
    2012:	f8df c020 	ldr.w	r12, [pc, #32]	; 2034 <osThreadContextCreate+0x60>
    2016:	df00      	svc	0
    2018:	4604      	mov	r4, r0
    201a:	6828      	ldr	r0, [r5, #0]
    201c:	f7ff ffca 	bl	1fb4 <osMutexRelease>
    2020:	4620      	mov	r0, r4
    2022:	e8bd 81f0 	ldmia.w	sp!, {r4, r5, r6, r7, r8, pc}
    2026:	2400      	movs	r4, #0
    2028:	e7fa      	b.n	2020 <osThreadContextCreate+0x4c>
    202a:	bf00      	nop
    202c:	10002595 	.word	0x10002595
    2030:	10002590 	.word	0x10002590
    2034:	00001d7d 	.word	0x00001d7d

00002038 <osThreadCreate>:
    2038:	2200      	movs	r2, #0
    203a:	f7ff bfcb 	b.w	1fd4 <osThreadContextCreate>
	...

00002040 <osMutexDelete>:
    2040:	b510      	push	{r4, lr}
    2042:	f3ef 8410 	mrs	r4, PRIMASK
    2046:	b934      	cbnz	r4, 2056 <osMutexDelete+0x16>
    2048:	f3ef 8405 	mrs	r4, IPSR
    204c:	b91c      	cbnz	r4, 2056 <osMutexDelete+0x16>
    204e:	f8df c00c 	ldr.w	r12, [pc, #12]	; 205c <osMutexDelete+0x1c>
    2052:	df00      	svc	0
    2054:	bd10      	pop	{r4, pc}
    2056:	2082      	movs	r0, #130	; 0x82
    2058:	bd10      	pop	{r4, pc}
    205a:	0000      	.short	0x0000
    205c:	00001f0b 	.word	0x00001f0b

00002060 <svcMessageCreate>:
    2060:	b510      	push	{r4, lr}
    2062:	4604      	mov	r4, r0
    2064:	b160      	cbz	r0, 2080 <svcMessageCreate+0x20>
    2066:	6801      	ldr	r1, [r0, #0]
    2068:	b151      	cbz	r1, 2080 <svcMessageCreate+0x20>
    206a:	6840      	ldr	r0, [r0, #4]
    206c:	b148      	cbz	r0, 2082 <svcMessageCreate+0x22>
    206e:	7803      	ldrb	r3, [r0, #0]
    2070:	b933      	cbnz	r3, 2080 <svcMessageCreate+0x20>
    2072:	3104      	adds	r1, #4
    2074:	0089      	lsls	r1, r1, #2
    2076:	b289      	uxth	r1, r1
    2078:	f7ff fc52 	bl	1920 <rt_mbx_init>
    207c:	6860      	ldr	r0, [r4, #4]
    207e:	bd10      	pop	{r4, pc}
    2080:	2000      	movs	r0, #0
    2082:	bd10      	pop	{r4, pc}

00002084 <svcKernelInitialize>:
    2084:	b538      	push	{r3, r4, r5, lr}
    2086:	4c11      	ldr	r4, [pc, #68]	; (20cc <svcKernelInitialize+0x48>)
    2088:	7823      	ldrb	r3, [r4, #0]
    208a:	b90b      	cbnz	r3, 2090 <svcKernelInitialize+0xc>
    208c:	f000 faa6 	bl	25dc <rt_sys_init>
    2090:	22ff      	movs	r2, #255	; 0xff
    2092:	4b0f      	ldr	r3, [pc, #60]	; (20d0 <svcKernelInitialize+0x4c>)
    2094:	7825      	ldrb	r5, [r4, #0]
    2096:	681b      	ldr	r3, [r3, #0]
    2098:	709a      	strb	r2, [r3, #2]
    209a:	b98d      	cbnz	r5, 20c0 <svcKernelInitialize+0x3c>
    209c:	4629      	mov	r1, r5
    209e:	480d      	ldr	r0, [pc, #52]	; (20d4 <svcKernelInitialize+0x50>)
    20a0:	f7ff ffde 	bl	2060 <svcMessageCreate>
    20a4:	4b0c      	ldr	r3, [pc, #48]	; (20d8 <svcKernelInitialize+0x54>)
    20a6:	462a      	mov	r2, r5
    20a8:	6018      	str	r0, [r3, #0]
    20aa:	4629      	mov	r1, r5
    20ac:	480b      	ldr	r0, [pc, #44]	; (20dc <svcKernelInitialize+0x58>)
    20ae:	f7ff fe65 	bl	1d7c <svcThreadCreate>
    20b2:	4b0b      	ldr	r3, [pc, #44]	; (20e0 <svcKernelInitialize+0x5c>)
    20b4:	6018      	str	r0, [r3, #0]
    20b6:	480b      	ldr	r0, [pc, #44]	; (20e4 <svcKernelInitialize+0x60>)
    20b8:	f7ff ff36 	bl	1f28 <osMutexCreate>
    20bc:	4b0a      	ldr	r3, [pc, #40]	; (20e8 <svcKernelInitialize+0x64>)
    20be:	6018      	str	r0, [r3, #0]
    20c0:	2301      	movs	r3, #1
    20c2:	2000      	movs	r0, #0
    20c4:	7023      	strb	r3, [r4, #0]
    20c6:	4b09      	ldr	r3, [pc, #36]	; (20ec <svcKernelInitialize+0x68>)
    20c8:	7018      	strb	r0, [r3, #0]
    20ca:	bd38      	pop	{r3, r4, r5, pc}
    20cc:	10002594 	.word	0x10002594
    20d0:	1000259c 	.word	0x1000259c
    20d4:	00007188 	.word	0x00007188
    20d8:	10001e58 	.word	0x10001e58
    20dc:	000071a4 	.word	0x000071a4
    20e0:	1000254c 	.word	0x1000254c
    20e4:	000071bc 	.word	0x000071bc
    20e8:	10002590 	.word	0x10002590
    20ec:	10002595 	.word	0x10002595

000020f0 <osKernelInitialize>:
    20f0:	b510      	push	{r4, lr}
    20f2:	f3ef 8410 	mrs	r4, PRIMASK
    20f6:	b974      	cbnz	r4, 2116 <osKernelInitialize+0x26>
    20f8:	f3ef 8405 	mrs	r4, IPSR
    20fc:	b95c      	cbnz	r4, 2116 <osKernelInitialize+0x26>
    20fe:	f3ef 8414 	mrs	r4, CONTROL
    2102:	07e4      	lsls	r4, r4, #31
    2104:	d403      	bmi.n	210e <osKernelInitialize+0x1e>
    2106:	e8bd 4010 	ldmia.w	sp!, {r4, lr}
    210a:	f7ff bfbb 	b.w	2084 <svcKernelInitialize>
    210e:	f8df c00c 	ldr.w	r12, [pc, #12]	; 211c <osKernelInitialize+0x2c>
    2112:	df00      	svc	0
    2114:	bd10      	pop	{r4, pc}
    2116:	2082      	movs	r0, #130	; 0x82
    2118:	bd10      	pop	{r4, pc}
    211a:	0000      	.short	0x0000
    211c:	00002085 	.word	0x00002085

00002120 <svcMessageGet>:
    2120:	e92d 41ff 	stmdb	sp!, {r0, r1, r2, r3, r4, r5, r6, r7, r8, lr}
    2124:	460c      	mov	r4, r1
    2126:	4680      	mov	r8, r0
    2128:	b318      	cbz	r0, 2172 <svcMessageGet+0x52>
    212a:	7803      	ldrb	r3, [r0, #0]
    212c:	2b01      	cmp	r3, #1
    212e:	d125      	bne.n	217c <svcMessageGet+0x5c>
    2130:	4608      	mov	r0, r1
    2132:	f7ff fd73 	bl	1c1c <rt_ms2tick>
    2136:	a902      	add	r1, sp, #8
    2138:	4602      	mov	r2, r0
    213a:	4640      	mov	r0, r8
    213c:	f7ff fbfe 	bl	193c <rt_mbx_wait>
    2140:	2801      	cmp	r0, #1
    2142:	d111      	bne.n	2168 <svcMessageGet+0x48>
    2144:	2000      	movs	r0, #0
    2146:	2c00      	cmp	r4, #0
    2148:	4602      	mov	r2, r0
    214a:	4603      	mov	r3, r0
    214c:	bf18      	it	ne
    214e:	2040      	movne	r0, #64	; 0x40
    2150:	9902      	ldr	r1, [sp, #8]
    2152:	4604      	mov	r4, r0
    2154:	460d      	mov	r5, r1
    2156:	4616      	mov	r6, r2
    2158:	461f      	mov	r7, r3
    215a:	4620      	mov	r0, r4
    215c:	4629      	mov	r1, r5
    215e:	4632      	mov	r2, r6
    2160:	463b      	mov	r3, r7
    2162:	b004      	add	sp, #16
    2164:	e8bd 81f0 	ldmia.w	sp!, {r4, r5, r6, r7, r8, pc}
    2168:	2000      	movs	r0, #0
    216a:	4602      	mov	r2, r0
    216c:	4603      	mov	r3, r0
    216e:	2010      	movs	r0, #16
    2170:	e7ee      	b.n	2150 <svcMessageGet+0x30>
    2172:	2480      	movs	r4, #128	; 0x80
    2174:	4605      	mov	r5, r0
    2176:	4606      	mov	r6, r0
    2178:	4607      	mov	r7, r0
    217a:	e7ee      	b.n	215a <svcMessageGet+0x3a>
    217c:	2500      	movs	r5, #0
    217e:	2480      	movs	r4, #128	; 0x80
    2180:	462e      	mov	r6, r5
    2182:	462f      	mov	r7, r5
    2184:	e7e9      	b.n	215a <svcMessageGet+0x3a>

00002186 <isrMessagePut>:
    2186:	b570      	push	{r4, r5, r6, lr}
    2188:	460e      	mov	r6, r1
    218a:	4614      	mov	r4, r2
    218c:	4605      	mov	r5, r0
    218e:	b160      	cbz	r0, 21aa <isrMessagePut+0x24>
    2190:	b95a      	cbnz	r2, 21aa <isrMessagePut+0x24>
    2192:	7803      	ldrb	r3, [r0, #0]
    2194:	2b01      	cmp	r3, #1
    2196:	d108      	bne.n	21aa <isrMessagePut+0x24>
    2198:	f7ff fc26 	bl	19e8 <rt_mbx_check>
    219c:	b138      	cbz	r0, 21ae <isrMessagePut+0x28>
    219e:	4628      	mov	r0, r5
    21a0:	4631      	mov	r1, r6
    21a2:	f7ff fc25 	bl	19f0 <isr_mbx_send>
    21a6:	4620      	mov	r0, r4
    21a8:	bd70      	pop	{r4, r5, r6, pc}
    21aa:	2080      	movs	r0, #128	; 0x80
    21ac:	bd70      	pop	{r4, r5, r6, pc}
    21ae:	2081      	movs	r0, #129	; 0x81
    21b0:	bd70      	pop	{r4, r5, r6, pc}
	...

000021b4 <sysTimerTick>:
    21b4:	b5f8      	push	{r3, r4, r5, r6, r7, lr}
    21b6:	4e11      	ldr	r6, [pc, #68]	; (21fc <sysTimerTick+0x48>)
    21b8:	6834      	ldr	r4, [r6, #0]
    21ba:	b12c      	cbz	r4, 21c8 <sysTimerTick+0x14>
    21bc:	68a3      	ldr	r3, [r4, #8]
    21be:	4f10      	ldr	r7, [pc, #64]	; (2200 <sysTimerTick+0x4c>)
    21c0:	3b01      	subs	r3, #1
    21c2:	60a3      	str	r3, [r4, #8]
    21c4:	68a2      	ldr	r2, [r4, #8]
    21c6:	b102      	cbz	r2, 21ca <sysTimerTick+0x16>
    21c8:	bdf8      	pop	{r3, r4, r5, r6, r7, pc}
    21ca:	6825      	ldr	r5, [r4, #0]
    21cc:	4621      	mov	r1, r4
    21ce:	6838      	ldr	r0, [r7, #0]
    21d0:	6035      	str	r5, [r6, #0]
    21d2:	f7ff ffd8 	bl	2186 <isrMessagePut>
    21d6:	b110      	cbz	r0, 21de <sysTimerTick+0x2a>
    21d8:	2004      	movs	r0, #4
    21da:	f7ff f82f 	bl	123c <os_error>
    21de:	7963      	ldrb	r3, [r4, #5]
    21e0:	2b01      	cmp	r3, #1
    21e2:	d107      	bne.n	21f4 <sysTimerTick+0x40>
    21e4:	68e1      	ldr	r1, [r4, #12]
    21e6:	4620      	mov	r0, r4
    21e8:	f7ff fcfe 	bl	1be8 <rt_timer_insert>
    21ec:	2d00      	cmp	r5, #0
    21ee:	d0eb      	beq.n	21c8 <sysTimerTick+0x14>
    21f0:	462c      	mov	r4, r5
    21f2:	e7e7      	b.n	21c4 <sysTimerTick+0x10>
    21f4:	2301      	movs	r3, #1
    21f6:	7123      	strb	r3, [r4, #4]
    21f8:	e7f8      	b.n	21ec <sysTimerTick+0x38>
    21fa:	bf00      	nop
    21fc:	10002598 	.word	0x10002598
    2200:	10001e58 	.word	0x10001e58

00002204 <isrMessageGet>:
    2204:	b57f      	push	{r0, r1, r2, r3, r4, r5, r6, lr}
    2206:	4604      	mov	r4, r0
    2208:	4616      	mov	r6, r2
    220a:	4608      	mov	r0, r1
    220c:	b101      	cbz	r1, 2210 <isrMessageGet+0xc>
    220e:	b122      	cbz	r2, 221a <isrMessageGet+0x16>
    2210:	2380      	movs	r3, #128	; 0x80
    2212:	6023      	str	r3, [r4, #0]
    2214:	4620      	mov	r0, r4
    2216:	b004      	add	sp, #16
    2218:	bd70      	pop	{r4, r5, r6, pc}
    221a:	780b      	ldrb	r3, [r1, #0]
    221c:	2b01      	cmp	r3, #1
    221e:	d1f7      	bne.n	2210 <isrMessageGet+0xc>
    2220:	a902      	add	r1, sp, #8
    2222:	f7ff fbec 	bl	19fe <isr_mbx_receive>
    2226:	2804      	cmp	r0, #4
    2228:	bf08      	it	eq
    222a:	2310      	moveq	r3, #16
    222c:	ad01      	add	r5, sp, #4
    222e:	bf14      	ite	ne
    2230:	9601      	strne	r6, [sp, #4]
    2232:	9301      	streq	r3, [sp, #4]
    2234:	e895 0007 	ldmia.w	r5, {r0, r1, r2}
    2238:	e884 0007 	stmia.w	r4, {r0, r1, r2}
    223c:	e7ea      	b.n	2214 <isrMessageGet+0x10>
	...

00002240 <osMessageGet>:
    2240:	b538      	push	{r3, r4, r5, lr}
    2242:	4604      	mov	r4, r0
    2244:	4615      	mov	r5, r2
    2246:	f3ef 8010 	mrs	r0, PRIMASK
    224a:	b910      	cbnz	r0, 2252 <osMessageGet+0x12>
    224c:	f3ef 8005 	mrs	r0, IPSR
    2250:	b128      	cbz	r0, 225e <osMessageGet+0x1e>
    2252:	462a      	mov	r2, r5
    2254:	4620      	mov	r0, r4
    2256:	f7ff ffd5 	bl	2204 <isrMessageGet>
    225a:	4620      	mov	r0, r4
    225c:	bd38      	pop	{r3, r4, r5, pc}
    225e:	4608      	mov	r0, r1
    2260:	4611      	mov	r1, r2
    2262:	f8df c00c 	ldr.w	r12, [pc, #12]	; 2270 <osMessageGet+0x30>
    2266:	df00      	svc	0
    2268:	e884 0007 	stmia.w	r4, {r0, r1, r2}
    226c:	e7f5      	b.n	225a <osMessageGet+0x1a>
    226e:	0000      	.short	0x0000
    2270:	00002121 	.word	0x00002121

00002274 <osTimerThread>:
    2274:	b57f      	push	{r0, r1, r2, r3, r4, r5, r6, lr}
    2276:	4c0a      	ldr	r4, [pc, #40]	; (22a0 <osTimerThread+0x2c>)
    2278:	f04f 32ff 	mov.w	r2, #4294967295	; 0xffffffff
    227c:	6821      	ldr	r1, [r4, #0]
    227e:	a803      	add	r0, sp, #12
    2280:	f7ff ffde 	bl	2240 <osMessageGet>
    2284:	9b03      	ldr	r3, [sp, #12]
    2286:	2b10      	cmp	r3, #16
    2288:	d1f6      	bne.n	2278 <osTimerThread+0x4>
    228a:	9904      	ldr	r1, [sp, #16]
    228c:	a801      	add	r0, sp, #4
    228e:	f7ff fdf7 	bl	1e80 <osTimerCall>
    2292:	9b01      	ldr	r3, [sp, #4]
    2294:	2b00      	cmp	r3, #0
    2296:	d0ef      	beq.n	2278 <osTimerThread+0x4>
    2298:	9802      	ldr	r0, [sp, #8]
    229a:	4798      	blx	r3
    229c:	e7ec      	b.n	2278 <osTimerThread+0x4>
    229e:	bf00      	nop
    22a0:	10001e58 	.word	0x10001e58

000022a4 <rt_switch_req>:
    22a4:	4b05      	ldr	r3, [pc, #20]	; (22bc <rt_switch_req+0x18>)
    22a6:	6058      	str	r0, [r3, #4]
    22a8:	2302      	movs	r3, #2
    22aa:	7043      	strb	r3, [r0, #1]
    22ac:	4b04      	ldr	r3, [pc, #16]	; (22c0 <rt_switch_req+0x1c>)
    22ae:	681b      	ldr	r3, [r3, #0]
    22b0:	b11b      	cbz	r3, 22ba <rt_switch_req+0x16>
    22b2:	691b      	ldr	r3, [r3, #16]
    22b4:	b10b      	cbz	r3, 22ba <rt_switch_req+0x16>
    22b6:	6bc0      	ldr	r0, [r0, #60]	; 0x3c
    22b8:	4718      	bx	r3
    22ba:	4770      	bx	lr
    22bc:	1000259c 	.word	0x1000259c
    22c0:	10002584 	.word	0x10002584

000022c4 <rt_dispatch.part.0>:
    22c4:	b508      	push	{r3, lr}
    22c6:	4803      	ldr	r0, [pc, #12]	; (22d4 <rt_dispatch.part.0+0x10>)
    22c8:	f7ff f81e 	bl	1308 <rt_get_first>
    22cc:	e8bd 4008 	ldmia.w	sp!, {r3, lr}
    22d0:	f7ff bfe8 	b.w	22a4 <rt_switch_req>
    22d4:	10002550 	.word	0x10002550

000022d8 <rt_dispatch>:
    22d8:	b570      	push	{r4, r5, r6, lr}
    22da:	4604      	mov	r4, r0
    22dc:	b918      	cbnz	r0, 22e6 <rt_dispatch+0xe>
    22de:	e8bd 4070 	ldmia.w	sp!, {r4, r5, r6, lr}
    22e2:	f7ff bfef 	b.w	22c4 <rt_dispatch.part.0>
    22e6:	4e0b      	ldr	r6, [pc, #44]	; (2314 <rt_dispatch+0x3c>)
    22e8:	78a2      	ldrb	r2, [r4, #2]
    22ea:	6830      	ldr	r0, [r6, #0]
    22ec:	2501      	movs	r5, #1
    22ee:	7883      	ldrb	r3, [r0, #2]
    22f0:	429a      	cmp	r2, r3
    22f2:	d908      	bls.n	2306 <rt_dispatch+0x2e>
    22f4:	f7ff f81a 	bl	132c <rt_put_rdy_first>
    22f8:	6833      	ldr	r3, [r6, #0]
    22fa:	4620      	mov	r0, r4
    22fc:	705d      	strb	r5, [r3, #1]
    22fe:	e8bd 4070 	ldmia.w	sp!, {r4, r5, r6, lr}
    2302:	f7ff bfcf 	b.w	22a4 <rt_switch_req>
    2306:	7065      	strb	r5, [r4, #1]
    2308:	4621      	mov	r1, r4
    230a:	e8bd 4070 	ldmia.w	sp!, {r4, r5, r6, lr}
    230e:	4802      	ldr	r0, [pc, #8]	; (2318 <rt_dispatch+0x40>)
    2310:	f7fe bfe2 	b.w	12d8 <rt_put_prio>
    2314:	1000259c 	.word	0x1000259c
    2318:	10002550 	.word	0x10002550

0000231c <rt_block>:
    231c:	b538      	push	{r3, r4, r5, lr}
    231e:	460d      	mov	r5, r1
    2320:	4601      	mov	r1, r0
    2322:	b180      	cbz	r0, 2346 <rt_block+0x2a>
    2324:	f64f 73ff 	movw	r3, #65535	; 0xffff
    2328:	4298      	cmp	r0, r3
    232a:	4c07      	ldr	r4, [pc, #28]	; (2348 <rt_block+0x2c>)
    232c:	d002      	beq.n	2334 <rt_block+0x18>
    232e:	6820      	ldr	r0, [r4, #0]
    2330:	f7ff f806 	bl	1340 <rt_put_dly>
    2334:	6823      	ldr	r3, [r4, #0]
    2336:	4805      	ldr	r0, [pc, #20]	; (234c <rt_block+0x30>)
    2338:	705d      	strb	r5, [r3, #1]
    233a:	f7fe ffe5 	bl	1308 <rt_get_first>
    233e:	e8bd 4038 	ldmia.w	sp!, {r3, r4, r5, lr}
    2342:	f7ff bfaf 	b.w	22a4 <rt_switch_req>
    2346:	bd38      	pop	{r3, r4, r5, pc}
    2348:	1000259c 	.word	0x1000259c
    234c:	10002550 	.word	0x10002550

00002350 <rt_tsk_self>:
    2350:	4b02      	ldr	r3, [pc, #8]	; (235c <rt_tsk_self+0xc>)
    2352:	6818      	ldr	r0, [r3, #0]
    2354:	b100      	cbz	r0, 2358 <rt_tsk_self+0x8>
    2356:	78c0      	ldrb	r0, [r0, #3]
    2358:	4770      	bx	lr
    235a:	bf00      	nop
    235c:	1000259c 	.word	0x1000259c

00002360 <rt_tsk_prio>:
    2360:	b510      	push	{r4, lr}
    2362:	b9a8      	cbnz	r0, 2390 <rt_tsk_prio+0x30>
    2364:	4b19      	ldr	r3, [pc, #100]	; (23cc <rt_tsk_prio+0x6c>)
    2366:	681b      	ldr	r3, [r3, #0]
    2368:	7099      	strb	r1, [r3, #2]
    236a:	f883 1024 	strb.w	r1, [r3, #36]	; 0x24
    236e:	4818      	ldr	r0, [pc, #96]	; (23d0 <rt_tsk_prio+0x70>)
    2370:	6843      	ldr	r3, [r0, #4]
    2372:	789b      	ldrb	r3, [r3, #2]
    2374:	428b      	cmp	r3, r1
    2376:	d801      	bhi.n	237c <rt_tsk_prio+0x1c>
    2378:	2000      	movs	r0, #0
    237a:	bd10      	pop	{r4, pc}
    237c:	4c13      	ldr	r4, [pc, #76]	; (23cc <rt_tsk_prio+0x6c>)
    237e:	6821      	ldr	r1, [r4, #0]
    2380:	f7fe ffaa 	bl	12d8 <rt_put_prio>
    2384:	2201      	movs	r2, #1
    2386:	6823      	ldr	r3, [r4, #0]
    2388:	705a      	strb	r2, [r3, #1]
    238a:	f7ff ff9b 	bl	22c4 <rt_dispatch.part.0>
    238e:	e7f3      	b.n	2378 <rt_tsk_prio+0x18>
    2390:	4b10      	ldr	r3, [pc, #64]	; (23d4 <rt_tsk_prio+0x74>)
    2392:	881b      	ldrh	r3, [r3, #0]
    2394:	4298      	cmp	r0, r3
    2396:	d817      	bhi.n	23c8 <rt_tsk_prio+0x68>
    2398:	4b0f      	ldr	r3, [pc, #60]	; (23d8 <rt_tsk_prio+0x78>)
    239a:	3801      	subs	r0, #1
    239c:	f853 4020 	ldr.w	r4, [r3, r0, lsl #2]
    23a0:	b194      	cbz	r4, 23c8 <rt_tsk_prio+0x68>
    23a2:	4b0a      	ldr	r3, [pc, #40]	; (23cc <rt_tsk_prio+0x6c>)
    23a4:	70a1      	strb	r1, [r4, #2]
    23a6:	681b      	ldr	r3, [r3, #0]
    23a8:	f884 1024 	strb.w	r1, [r4, #36]	; 0x24
    23ac:	429c      	cmp	r4, r3
    23ae:	d0de      	beq.n	236e <rt_tsk_prio+0xe>
    23b0:	4620      	mov	r0, r4
    23b2:	f7ff f837 	bl	1424 <rt_resort_prio>
    23b6:	7863      	ldrb	r3, [r4, #1]
    23b8:	2b01      	cmp	r3, #1
    23ba:	d1dd      	bne.n	2378 <rt_tsk_prio+0x18>
    23bc:	4804      	ldr	r0, [pc, #16]	; (23d0 <rt_tsk_prio+0x70>)
    23be:	f7fe ffa3 	bl	1308 <rt_get_first>
    23c2:	f7ff ff89 	bl	22d8 <rt_dispatch>
    23c6:	e7d7      	b.n	2378 <rt_tsk_prio+0x18>
    23c8:	20ff      	movs	r0, #255	; 0xff
    23ca:	bd10      	pop	{r4, pc}
    23cc:	1000259c 	.word	0x1000259c
    23d0:	10002550 	.word	0x10002550
    23d4:	00007184 	.word	0x00007184
    23d8:	10001d98 	.word	0x10001d98

000023dc <rt_tsk_create>:
    23dc:	e92d 47f0 	stmdb	sp!, {r4, r5, r6, r7, r8, r9, r10, lr}
    23e0:	460d      	mov	r5, r1
    23e2:	f011 0fff 	tst.w	r1, #255	; 0xff
    23e6:	4680      	mov	r8, r0
    23e8:	4823      	ldr	r0, [pc, #140]	; (2478 <rt_tsk_create+0x9c>)
    23ea:	4616      	mov	r6, r2
    23ec:	469a      	mov	r10, r3
    23ee:	bf08      	it	eq
    23f0:	3501      	addeq	r5, #1
    23f2:	f7ff fa74 	bl	18de <rt_alloc_box>
    23f6:	4604      	mov	r4, r0
    23f8:	b920      	cbnz	r0, 2404 <rt_tsk_create+0x28>
    23fa:	f04f 0900 	mov.w	r9, #0
    23fe:	4648      	mov	r0, r9
    2400:	e8bd 87f0 	ldmia.w	sp!, {r4, r5, r6, r7, r8, r9, r10, pc}
    2404:	2100      	movs	r1, #0
    2406:	4b1d      	ldr	r3, [pc, #116]	; (247c <rt_tsk_create+0xa0>)
    2408:	6306      	str	r6, [r0, #48]	; 0x30
    240a:	881b      	ldrh	r3, [r3, #0]
    240c:	0a28      	lsrs	r0, r5, #8
    240e:	4e1c      	ldr	r6, [pc, #112]	; (2480 <rt_tsk_create+0xa4>)
    2410:	62a0      	str	r0, [r4, #40]	; 0x28
    2412:	428b      	cmp	r3, r1
    2414:	f101 0901 	add.w	r9, r1, #1
    2418:	d0ef      	beq.n	23fa <rt_tsk_create+0x1e>
    241a:	eb06 0289 	add.w	r2, r6, r9, lsl #2
    241e:	f852 2c04 	ldr.w	r2, [r2, #-4]
    2422:	460f      	mov	r7, r1
    2424:	4649      	mov	r1, r9
    2426:	2a00      	cmp	r2, #0
    2428:	d1f3      	bne.n	2412 <rt_tsk_create+0x36>
    242a:	2301      	movs	r3, #1
    242c:	b2ed      	uxtb	r5, r5
    242e:	f884 9003 	strb.w	r9, [r4, #3]
    2432:	f8c4 a01c 	str.w	r10, [r4, #28]
    2436:	f8c4 a038 	str.w	r10, [r4, #56]	; 0x38
    243a:	7022      	strb	r2, [r4, #0]
    243c:	7063      	strb	r3, [r4, #1]
    243e:	70a5      	strb	r5, [r4, #2]
    2440:	f884 5024 	strb.w	r5, [r4, #36]	; 0x24
    2444:	6062      	str	r2, [r4, #4]
    2446:	60a2      	str	r2, [r4, #8]
    2448:	60e2      	str	r2, [r4, #12]
    244a:	6122      	str	r2, [r4, #16]
    244c:	6222      	str	r2, [r4, #32]
    244e:	82a2      	strh	r2, [r4, #20]
    2450:	82e2      	strh	r2, [r4, #22]
    2452:	8322      	strh	r2, [r4, #24]
    2454:	8362      	strh	r2, [r4, #26]
    2456:	f884 2025 	strb.w	r2, [r4, #37]	; 0x25
    245a:	b918      	cbnz	r0, 2464 <rt_tsk_create+0x88>
    245c:	4809      	ldr	r0, [pc, #36]	; (2484 <rt_tsk_create+0xa8>)
    245e:	f7ff fa3e 	bl	18de <rt_alloc_box>
    2462:	6320      	str	r0, [r4, #48]	; 0x30
    2464:	4620      	mov	r0, r4
    2466:	4641      	mov	r1, r8
    2468:	f7ff f92a 	bl	16c0 <rt_init_stack>
    246c:	4620      	mov	r0, r4
    246e:	f846 4027 	str.w	r4, [r6, r7, lsl #2]
    2472:	f7ff ff31 	bl	22d8 <rt_dispatch>
    2476:	e7c2      	b.n	23fe <rt_tsk_create+0x22>
    2478:	10002180 	.word	0x10002180
    247c:	00007184 	.word	0x00007184
    2480:	10001d98 	.word	0x10001d98
    2484:	10001b88 	.word	0x10001b88

00002488 <rt_tsk_delete>:
    2488:	e92d 4ff8 	stmdb	sp!, {r3, r4, r5, r6, r7, r8, r9, r10, r11, lr}
    248c:	4d4d      	ldr	r5, [pc, #308]	; (25c4 <rt_tsk_delete+0x13c>)
    248e:	b118      	cbz	r0, 2498 <rt_tsk_delete+0x10>
    2490:	682b      	ldr	r3, [r5, #0]
    2492:	78db      	ldrb	r3, [r3, #3]
    2494:	4298      	cmp	r0, r3
    2496:	d141      	bne.n	251c <rt_tsk_delete+0x94>
    2498:	2300      	movs	r3, #0
    249a:	682c      	ldr	r4, [r5, #0]
    249c:	2701      	movs	r7, #1
    249e:	7063      	strb	r3, [r4, #1]
    24a0:	f001 ff23 	bl	42ea <rt_get_PSP>
    24a4:	62e0      	str	r0, [r4, #44]	; 0x2c
    24a6:	f7ff f9e3 	bl	1870 <rt_stk_check>
    24aa:	682b      	ldr	r3, [r5, #0]
    24ac:	f8df 8128 	ldr.w	r8, [pc, #296]	; 25d8 <rt_tsk_delete+0x150>
    24b0:	6a1c      	ldr	r4, [r3, #32]
    24b2:	b9a4      	cbnz	r4, 24de <rt_tsk_delete+0x56>
    24b4:	682a      	ldr	r2, [r5, #0]
    24b6:	4944      	ldr	r1, [pc, #272]	; (25c8 <rt_tsk_delete+0x140>)
    24b8:	78d3      	ldrb	r3, [r2, #3]
    24ba:	4844      	ldr	r0, [pc, #272]	; (25cc <rt_tsk_delete+0x144>)
    24bc:	3b01      	subs	r3, #1
    24be:	f841 4023 	str.w	r4, [r1, r3, lsl #2]
    24c2:	6b11      	ldr	r1, [r2, #48]	; 0x30
    24c4:	f7ff fa18 	bl	18f8 <rt_free_box>
    24c8:	6829      	ldr	r1, [r5, #0]
    24ca:	4841      	ldr	r0, [pc, #260]	; (25d0 <rt_tsk_delete+0x148>)
    24cc:	630c      	str	r4, [r1, #48]	; 0x30
    24ce:	f7ff fa13 	bl	18f8 <rt_free_box>
    24d2:	602c      	str	r4, [r5, #0]
    24d4:	f7ff fef6 	bl	22c4 <rt_dispatch.part.0>
    24d8:	4620      	mov	r0, r4
    24da:	e8bd 8ff8 	ldmia.w	sp!, {r3, r4, r5, r6, r7, r8, r9, r10, r11, pc}
    24de:	6863      	ldr	r3, [r4, #4]
    24e0:	b1b3      	cbz	r3, 2510 <rt_tsk_delete+0x88>
    24e2:	4620      	mov	r0, r4
    24e4:	f7fe ff10 	bl	1308 <rt_get_first>
    24e8:	4606      	mov	r6, r0
    24ea:	2100      	movs	r1, #0
    24ec:	f7ff f932 	bl	1754 <rt_ret_val>
    24f0:	4630      	mov	r0, r6
    24f2:	f7fe ffaf 	bl	1454 <rt_rmv_dly>
    24f6:	7077      	strb	r7, [r6, #1]
    24f8:	4631      	mov	r1, r6
    24fa:	4640      	mov	r0, r8
    24fc:	f7fe feec 	bl	12d8 <rt_put_prio>
    2500:	68e3      	ldr	r3, [r4, #12]
    2502:	6a32      	ldr	r2, [r6, #32]
    2504:	8067      	strh	r7, [r4, #2]
    2506:	60a6      	str	r6, [r4, #8]
    2508:	60e2      	str	r2, [r4, #12]
    250a:	6234      	str	r4, [r6, #32]
    250c:	461c      	mov	r4, r3
    250e:	e7d0      	b.n	24b2 <rt_tsk_delete+0x2a>
    2510:	68e2      	ldr	r2, [r4, #12]
    2512:	8063      	strh	r3, [r4, #2]
    2514:	60a3      	str	r3, [r4, #8]
    2516:	60e3      	str	r3, [r4, #12]
    2518:	4614      	mov	r4, r2
    251a:	e7ca      	b.n	24b2 <rt_tsk_delete+0x2a>
    251c:	4b2d      	ldr	r3, [pc, #180]	; (25d4 <rt_tsk_delete+0x14c>)
    251e:	881b      	ldrh	r3, [r3, #0]
    2520:	4298      	cmp	r0, r3
    2522:	d84d      	bhi.n	25c0 <rt_tsk_delete+0x138>
    2524:	4b28      	ldr	r3, [pc, #160]	; (25c8 <rt_tsk_delete+0x140>)
    2526:	1e47      	subs	r7, r0, #1
    2528:	f853 6027 	ldr.w	r6, [r3, r7, lsl #2]
    252c:	4699      	mov	r9, r3
    252e:	2e00      	cmp	r6, #0
    2530:	d046      	beq.n	25c0 <rt_tsk_delete+0x138>
    2532:	f04f 0a01 	mov.w	r10, #1
    2536:	4630      	mov	r0, r6
    2538:	f7fe ff5e 	bl	13f8 <rt_rmv_list>
    253c:	4630      	mov	r0, r6
    253e:	f7fe ff89 	bl	1454 <rt_rmv_dly>
    2542:	f8df b094 	ldr.w	r11, [pc, #148]	; 25d8 <rt_tsk_delete+0x150>
    2546:	6a34      	ldr	r4, [r6, #32]
    2548:	b9b4      	cbnz	r4, 2578 <rt_tsk_delete+0xf0>
    254a:	6b31      	ldr	r1, [r6, #48]	; 0x30
    254c:	481f      	ldr	r0, [pc, #124]	; (25cc <rt_tsk_delete+0x144>)
    254e:	f849 4027 	str.w	r4, [r9, r7, lsl #2]
    2552:	f7ff f9d1 	bl	18f8 <rt_free_box>
    2556:	4631      	mov	r1, r6
    2558:	6334      	str	r4, [r6, #48]	; 0x30
    255a:	481d      	ldr	r0, [pc, #116]	; (25d0 <rt_tsk_delete+0x148>)
    255c:	f7ff f9cc 	bl	18f8 <rt_free_box>
    2560:	481d      	ldr	r0, [pc, #116]	; (25d8 <rt_tsk_delete+0x150>)
    2562:	6829      	ldr	r1, [r5, #0]
    2564:	6843      	ldr	r3, [r0, #4]
    2566:	789a      	ldrb	r2, [r3, #2]
    2568:	788b      	ldrb	r3, [r1, #2]
    256a:	429a      	cmp	r2, r3
    256c:	d9b4      	bls.n	24d8 <rt_tsk_delete+0x50>
    256e:	2301      	movs	r3, #1
    2570:	704b      	strb	r3, [r1, #1]
    2572:	f7fe feb1 	bl	12d8 <rt_put_prio>
    2576:	e7ad      	b.n	24d4 <rt_tsk_delete+0x4c>
    2578:	6863      	ldr	r3, [r4, #4]
    257a:	b1db      	cbz	r3, 25b4 <rt_tsk_delete+0x12c>
    257c:	4620      	mov	r0, r4
    257e:	f7fe fec3 	bl	1308 <rt_get_first>
    2582:	4680      	mov	r8, r0
    2584:	2100      	movs	r1, #0
    2586:	f7ff f8e5 	bl	1754 <rt_ret_val>
    258a:	4640      	mov	r0, r8
    258c:	f7fe ff62 	bl	1454 <rt_rmv_dly>
    2590:	f888 a001 	strb.w	r10, [r8, #1]
    2594:	4641      	mov	r1, r8
    2596:	4658      	mov	r0, r11
    2598:	f7fe fe9e 	bl	12d8 <rt_put_prio>
    259c:	68e3      	ldr	r3, [r4, #12]
    259e:	f8d8 2020 	ldr.w	r2, [r8, #32]
    25a2:	f8a4 a002 	strh.w	r10, [r4, #2]
    25a6:	f8c4 8008 	str.w	r8, [r4, #8]
    25aa:	60e2      	str	r2, [r4, #12]
    25ac:	f8c8 4020 	str.w	r4, [r8, #32]
    25b0:	461c      	mov	r4, r3
    25b2:	e7c9      	b.n	2548 <rt_tsk_delete+0xc0>
    25b4:	68e2      	ldr	r2, [r4, #12]
    25b6:	8063      	strh	r3, [r4, #2]
    25b8:	60a3      	str	r3, [r4, #8]
    25ba:	60e3      	str	r3, [r4, #12]
    25bc:	4614      	mov	r4, r2
    25be:	e7c3      	b.n	2548 <rt_tsk_delete+0xc0>
    25c0:	24ff      	movs	r4, #255	; 0xff
    25c2:	e789      	b.n	24d8 <rt_tsk_delete+0x50>
    25c4:	1000259c 	.word	0x1000259c
    25c8:	10001d98 	.word	0x10001d98
    25cc:	10001b88 	.word	0x10001b88
    25d0:	10002180 	.word	0x10002180
    25d4:	00007184 	.word	0x00007184
    25d8:	10002550 	.word	0x10002550

000025dc <rt_sys_init>:
    25dc:	b538      	push	{r3, r4, r5, lr}
    25de:	4b2c      	ldr	r3, [pc, #176]	; (2690 <rt_sys_init+0xb4>)
    25e0:	492c      	ldr	r1, [pc, #176]	; (2694 <rt_sys_init+0xb8>)
    25e2:	881a      	ldrh	r2, [r3, #0]
    25e4:	2300      	movs	r3, #0
    25e6:	4618      	mov	r0, r3
    25e8:	4293      	cmp	r3, r2
    25ea:	d34d      	bcc.n	2688 <rt_sys_init+0xac>
    25ec:	4b2a      	ldr	r3, [pc, #168]	; (2698 <rt_sys_init+0xbc>)
    25ee:	2240      	movs	r2, #64	; 0x40
    25f0:	8819      	ldrh	r1, [r3, #0]
    25f2:	482a      	ldr	r0, [pc, #168]	; (269c <rt_sys_init+0xc0>)
    25f4:	f7ff f94e 	bl	1894 <_init_box>
    25f8:	4b29      	ldr	r3, [pc, #164]	; (26a0 <rt_sys_init+0xc4>)
    25fa:	482a      	ldr	r0, [pc, #168]	; (26a4 <rt_sys_init+0xc8>)
    25fc:	881a      	ldrh	r2, [r3, #0]
    25fe:	4b2a      	ldr	r3, [pc, #168]	; (26a8 <rt_sys_init+0xcc>)
    2600:	f042 4200 	orr.w	r2, r2, #2147483648	; 0x80000000
    2604:	6819      	ldr	r1, [r3, #0]
    2606:	f7ff f945 	bl	1894 <_init_box>
    260a:	4b28      	ldr	r3, [pc, #160]	; (26ac <rt_sys_init+0xd0>)
    260c:	2208      	movs	r2, #8
    260e:	8819      	ldrh	r1, [r3, #0]
    2610:	4b27      	ldr	r3, [pc, #156]	; (26b0 <rt_sys_init+0xd4>)
    2612:	4c28      	ldr	r4, [pc, #160]	; (26b4 <rt_sys_init+0xd8>)
    2614:	6818      	ldr	r0, [r3, #0]
    2616:	f7ff f93d 	bl	1894 <_init_box>
    261a:	23ff      	movs	r3, #255	; 0xff
    261c:	2500      	movs	r5, #0
    261e:	70e3      	strb	r3, [r4, #3]
    2620:	2301      	movs	r3, #1
    2622:	4820      	ldr	r0, [pc, #128]	; (26a4 <rt_sys_init+0xc8>)
    2624:	7063      	strb	r3, [r4, #1]
    2626:	62a5      	str	r5, [r4, #40]	; 0x28
    2628:	7025      	strb	r5, [r4, #0]
    262a:	70a5      	strb	r5, [r4, #2]
    262c:	f884 5024 	strb.w	r5, [r4, #36]	; 0x24
    2630:	6065      	str	r5, [r4, #4]
    2632:	60a5      	str	r5, [r4, #8]
    2634:	60e5      	str	r5, [r4, #12]
    2636:	6125      	str	r5, [r4, #16]
    2638:	6225      	str	r5, [r4, #32]
    263a:	82a5      	strh	r5, [r4, #20]
    263c:	82e5      	strh	r5, [r4, #22]
    263e:	8325      	strh	r5, [r4, #24]
    2640:	8365      	strh	r5, [r4, #26]
    2642:	f884 5025 	strb.w	r5, [r4, #37]	; 0x25
    2646:	f7ff f94a 	bl	18de <rt_alloc_box>
    264a:	491b      	ldr	r1, [pc, #108]	; (26b8 <rt_sys_init+0xdc>)
    264c:	6320      	str	r0, [r4, #48]	; 0x30
    264e:	4620      	mov	r0, r4
    2650:	f7ff f836 	bl	16c0 <rt_init_stack>
    2654:	2204      	movs	r2, #4
    2656:	4b19      	ldr	r3, [pc, #100]	; (26bc <rt_sys_init+0xe0>)
    2658:	4620      	mov	r0, r4
    265a:	701a      	strb	r2, [r3, #0]
    265c:	605d      	str	r5, [r3, #4]
    265e:	4b18      	ldr	r3, [pc, #96]	; (26c0 <rt_sys_init+0xe4>)
    2660:	701a      	strb	r2, [r3, #0]
    2662:	60dd      	str	r5, [r3, #12]
    2664:	611d      	str	r5, [r3, #16]
    2666:	829d      	strh	r5, [r3, #20]
    2668:	4b16      	ldr	r3, [pc, #88]	; (26c4 <rt_sys_init+0xe8>)
    266a:	601c      	str	r4, [r3, #0]
    266c:	2302      	movs	r3, #2
    266e:	7063      	strb	r3, [r4, #1]
    2670:	f7ff fe18 	bl	22a4 <rt_switch_req>
    2674:	4a14      	ldr	r2, [pc, #80]	; (26c8 <rt_sys_init+0xec>)
    2676:	4b15      	ldr	r3, [pc, #84]	; (26cc <rt_sys_init+0xf0>)
    2678:	7812      	ldrb	r2, [r2, #0]
    267a:	701d      	strb	r5, [r3, #0]
    267c:	705d      	strb	r5, [r3, #1]
    267e:	70da      	strb	r2, [r3, #3]
    2680:	e8bd 4038 	ldmia.w	sp!, {r3, r4, r5, lr}
    2684:	f7ff ba80 	b.w	1b88 <rt_init_robin>
    2688:	f841 0023 	str.w	r0, [r1, r3, lsl #2]
    268c:	3301      	adds	r3, #1
    268e:	e7ab      	b.n	25e8 <rt_sys_init+0xc>
    2690:	00007184 	.word	0x00007184
    2694:	10001d98 	.word	0x10001d98
    2698:	00007150 	.word	0x00007150
    269c:	10002180 	.word	0x10002180
    26a0:	000071a0 	.word	0x000071a0
    26a4:	10001b88 	.word	0x10001b88
    26a8:	0000714c 	.word	0x0000714c
    26ac:	00007152 	.word	0x00007152
    26b0:	100007f0 	.word	0x100007f0
    26b4:	100025a4 	.word	0x100025a4
    26b8:	00001239 	.word	0x00001239
    26bc:	10002550 	.word	0x10002550
    26c0:	10002568 	.word	0x10002568
    26c4:	1000259c 	.word	0x1000259c
    26c8:	00007181 	.word	0x00007181
    26cc:	10001dd4 	.word	0x10001dd4

000026d0 <rt_sys_start>:
    26d0:	b508      	push	{r3, lr}
    26d2:	4b1e      	ldr	r3, [pc, #120]	; (274c <rt_sys_start+0x7c>)
    26d4:	681a      	ldr	r2, [r3, #0]
    26d6:	f442 027f 	orr.w	r2, r2, #16711680	; 0xff0000
    26da:	601a      	str	r2, [r3, #0]
    26dc:	681b      	ldr	r3, [r3, #0]
    26de:	021b      	lsls	r3, r3, #8
    26e0:	f003 437f 	and.w	r3, r3, #4278190080	; 0xff000000
    26e4:	43db      	mvns	r3, r3
    26e6:	fab3 f383 	clz	r3, r3
    26ea:	4a19      	ldr	r2, [pc, #100]	; (2750 <rt_sys_start+0x80>)
    26ec:	b2db      	uxtb	r3, r3
    26ee:	6812      	ldr	r2, [r2, #0]
    26f0:	f1c3 0308 	rsb	r3, r3, #8
    26f4:	f3c2 2202 	ubfx	r2, r2, #8, #3
    26f8:	4293      	cmp	r3, r2
    26fa:	bf98      	it	ls
    26fc:	1c53      	addls	r3, r2, #1
    26fe:	f06f 7280 	mvn.w	r2, #16777216	; 0x1000000
    2702:	4814      	ldr	r0, [pc, #80]	; (2754 <rt_sys_start+0x84>)
    2704:	fa02 f303 	lsl.w	r3, r2, r3
    2708:	6801      	ldr	r1, [r0, #0]
    270a:	f003 437f 	and.w	r3, r3, #4278190080	; 0xff000000
    270e:	f021 427f 	bic.w	r2, r1, #4278190080	; 0xff000000
    2712:	4313      	orrs	r3, r2
    2714:	6003      	str	r3, [r0, #0]
    2716:	f7ff f873 	bl	1800 <os_tick_init>
    271a:	4b0f      	ldr	r3, [pc, #60]	; (2758 <rt_sys_start+0x88>)
    271c:	2800      	cmp	r0, #0
    271e:	6018      	str	r0, [r3, #0]
    2720:	db12      	blt.n	2748 <rt_sys_start+0x78>
    2722:	22ff      	movs	r2, #255	; 0xff
    2724:	2101      	movs	r1, #1
    2726:	f100 4060 	add.w	r0, r0, #3758096384	; 0xe0000000
    272a:	f500 4064 	add.w	r0, r0, #58368	; 0xe400
    272e:	7002      	strb	r2, [r0, #0]
    2730:	681a      	ldr	r2, [r3, #0]
    2732:	0953      	lsrs	r3, r2, #5
    2734:	009b      	lsls	r3, r3, #2
    2736:	f103 4360 	add.w	r3, r3, #3758096384	; 0xe0000000
    273a:	f002 021f 	and.w	r2, r2, #31
    273e:	f503 4361 	add.w	r3, r3, #57600	; 0xe100
    2742:	fa01 f202 	lsl.w	r2, r1, r2
    2746:	601a      	str	r2, [r3, #0]
    2748:	bd08      	pop	{r3, pc}
    274a:	bf00      	nop
    274c:	e000ed20 	.word	0xe000ed20
    2750:	e000ed0c 	.word	0xe000ed0c
    2754:	e000ed1c 	.word	0xe000ed1c
    2758:	10002580 	.word	0x10002580

0000275c <rt_dly_wait>:
    275c:	2103      	movs	r1, #3
    275e:	f7ff bddd 	b.w	231c <rt_block>
	...

00002764 <rt_sem_psh>:
    2764:	6842      	ldr	r2, [r0, #4]
    2766:	b510      	push	{r4, lr}
    2768:	b17a      	cbz	r2, 278a <rt_sem_psh+0x26>
    276a:	f7fe fdcd 	bl	1308 <rt_get_first>
    276e:	4604      	mov	r4, r0
    2770:	f7fe fe70 	bl	1454 <rt_rmv_dly>
    2774:	2101      	movs	r1, #1
    2776:	4620      	mov	r0, r4
    2778:	7061      	strb	r1, [r4, #1]
    277a:	f7fe ffeb 	bl	1754 <rt_ret_val>
    277e:	4621      	mov	r1, r4
    2780:	e8bd 4010 	ldmia.w	sp!, {r4, lr}
    2784:	4803      	ldr	r0, [pc, #12]	; (2794 <rt_sem_psh+0x30>)
    2786:	f7fe bda7 	b.w	12d8 <rt_put_prio>
    278a:	8842      	ldrh	r2, [r0, #2]
    278c:	3201      	adds	r2, #1
    278e:	8042      	strh	r2, [r0, #2]
    2790:	bd10      	pop	{r4, pc}
    2792:	bf00      	nop
    2794:	10002550 	.word	0x10002550

00002798 <analogout_init>:
    2798:	b570      	push	{r4, r5, r6, lr}
    279a:	460c      	mov	r4, r1
    279c:	4d0a      	ldr	r5, [pc, #40]	; (27c8 <analogout_init+0x30>)
    279e:	4606      	mov	r6, r0
    27a0:	4629      	mov	r1, r5
    27a2:	4620      	mov	r0, r4
    27a4:	f7fe fc68 	bl	1078 <pinmap_peripheral>
    27a8:	4a08      	ldr	r2, [pc, #32]	; (27cc <analogout_init+0x34>)
    27aa:	7030      	strb	r0, [r6, #0]
    27ac:	f8d2 31a8 	ldr.w	r3, [r2, #424]	; 0x1a8
    27b0:	4629      	mov	r1, r5
    27b2:	f423 0340 	bic.w	r3, r3, #12582912	; 0xc00000
    27b6:	f8c2 31a8 	str.w	r3, [r2, #424]	; 0x1a8
    27ba:	4620      	mov	r0, r4
    27bc:	f7fe fc22 	bl	1004 <pinmap_pinout>
    27c0:	2200      	movs	r2, #0
    27c2:	4b03      	ldr	r3, [pc, #12]	; (27d0 <analogout_init+0x38>)
    27c4:	601a      	str	r2, [r3, #0]
    27c6:	bd70      	pop	{r4, r5, r6, pc}
    27c8:	000071c0 	.word	0x000071c0
    27cc:	400fc000 	.word	0x400fc000
    27d0:	4008c000 	.word	0x4008c000

000027d4 <analogout_write>:
    27d4:	b538      	push	{r3, r4, r5, lr}
    27d6:	460d      	mov	r5, r1
    27d8:	2100      	movs	r1, #0
    27da:	4628      	mov	r0, r5
    27dc:	f002 fd86 	bl	52ec <__aeabi_fcmplt>
    27e0:	4c0b      	ldr	r4, [pc, #44]	; (2810 <analogout_write+0x3c>)
    27e2:	b110      	cbz	r0, 27ea <analogout_write+0x16>
    27e4:	2300      	movs	r3, #0
    27e6:	6023      	str	r3, [r4, #0]
    27e8:	bd38      	pop	{r3, r4, r5, pc}
    27ea:	f04f 517e 	mov.w	r1, #1065353216	; 0x3f800000
    27ee:	4628      	mov	r0, r5
    27f0:	f002 fd9a 	bl	5328 <__aeabi_fcmpgt>
    27f4:	b110      	cbz	r0, 27fc <analogout_write+0x28>
    27f6:	f64f 73c0 	movw	r3, #65472	; 0xffc0
    27fa:	e7f4      	b.n	27e6 <analogout_write+0x12>
    27fc:	4905      	ldr	r1, [pc, #20]	; (2814 <analogout_write+0x40>)
    27fe:	4628      	mov	r0, r5
    2800:	f002 fbd6 	bl	4fb0 <__aeabi_fmul>
    2804:	f002 fd9a 	bl	533c <__aeabi_f2iz>
    2808:	0180      	lsls	r0, r0, #6
    280a:	b280      	uxth	r0, r0
    280c:	6020      	str	r0, [r4, #0]
    280e:	bd38      	pop	{r3, r4, r5, pc}
    2810:	4008c000 	.word	0x4008c000
    2814:	447fc000 	.word	0x447fc000

00002818 <handle_interrupt_in>:
    2818:	e92d 4ff7 	stmdb	sp!, {r0, r1, r2, r4, r5, r6, r7, r8, r9, r10, r11, lr}
    281c:	f04f 0a01 	mov.w	r10, #1
    2820:	4c3a      	ldr	r4, [pc, #232]	; (290c <handle_interrupt_in+0xf4>)
    2822:	4a3b      	ldr	r2, [pc, #236]	; (2910 <handle_interrupt_in+0xf8>)
    2824:	f8d4 9004 	ldr.w	r9, [r4, #4]
    2828:	f8df b0e8 	ldr.w	r11, [pc, #232]	; 2914 <handle_interrupt_in+0xfc>
    282c:	f8d4 8008 	ldr.w	r8, [r4, #8]
    2830:	6a67      	ldr	r7, [r4, #36]	; 0x24
    2832:	6aa6      	ldr	r6, [r4, #40]	; 0x28
    2834:	f1b9 0f00 	cmp.w	r9, #0
    2838:	d115      	bne.n	2866 <handle_interrupt_in+0x4e>
    283a:	f8df 90d4 	ldr.w	r9, [pc, #212]	; 2910 <handle_interrupt_in+0xf8>
    283e:	f8df a0d4 	ldr.w	r10, [pc, #212]	; 2914 <handle_interrupt_in+0xfc>
    2842:	f1b8 0f00 	cmp.w	r8, #0
    2846:	d122      	bne.n	288e <handle_interrupt_in+0x76>
    2848:	f04f 0a01 	mov.w	r10, #1
    284c:	f8df 80c0 	ldr.w	r8, [pc, #192]	; 2910 <handle_interrupt_in+0xf8>
    2850:	f8df 90c0 	ldr.w	r9, [pc, #192]	; 2914 <handle_interrupt_in+0xfc>
    2854:	bb77      	cbnz	r7, 28b4 <handle_interrupt_in+0x9c>
    2856:	4f2e      	ldr	r7, [pc, #184]	; (2910 <handle_interrupt_in+0xf8>)
    2858:	f8df 80b8 	ldr.w	r8, [pc, #184]	; 2914 <handle_interrupt_in+0xfc>
    285c:	2e00      	cmp	r6, #0
    285e:	d13e      	bne.n	28de <handle_interrupt_in+0xc6>
    2860:	b003      	add	sp, #12
    2862:	e8bd 8ff0 	ldmia.w	sp!, {r4, r5, r6, r7, r8, r9, r10, r11, pc}
    2866:	fab9 f589 	clz	r5, r9
    286a:	f1c5 051f 	rsb	r5, r5, #31
    286e:	b2ed      	uxtb	r5, r5
    2870:	f852 0025 	ldr.w	r0, [r2, r5, lsl #2]
    2874:	b128      	cbz	r0, 2882 <handle_interrupt_in+0x6a>
    2876:	2101      	movs	r1, #1
    2878:	f8db 3000 	ldr.w	r3, [r11]
    287c:	9201      	str	r2, [sp, #4]
    287e:	4798      	blx	r3
    2880:	9a01      	ldr	r2, [sp, #4]
    2882:	fa0a f505 	lsl.w	r5, r10, r5
    2886:	60e5      	str	r5, [r4, #12]
    2888:	eba9 0905 	sub.w	r9, r9, r5
    288c:	e7d2      	b.n	2834 <handle_interrupt_in+0x1c>
    288e:	fab8 f588 	clz	r5, r8
    2892:	f1c5 051f 	rsb	r5, r5, #31
    2896:	b2ed      	uxtb	r5, r5
    2898:	f859 0025 	ldr.w	r0, [r9, r5, lsl #2]
    289c:	b118      	cbz	r0, 28a6 <handle_interrupt_in+0x8e>
    289e:	2102      	movs	r1, #2
    28a0:	f8da 3000 	ldr.w	r3, [r10]
    28a4:	4798      	blx	r3
    28a6:	2301      	movs	r3, #1
    28a8:	fa03 f505 	lsl.w	r5, r3, r5
    28ac:	60e5      	str	r5, [r4, #12]
    28ae:	eba8 0805 	sub.w	r8, r8, r5
    28b2:	e7c6      	b.n	2842 <handle_interrupt_in+0x2a>
    28b4:	fab7 f587 	clz	r5, r7
    28b8:	f1c5 051f 	rsb	r5, r5, #31
    28bc:	b2ed      	uxtb	r5, r5
    28be:	2d0f      	cmp	r5, #15
    28c0:	d808      	bhi.n	28d4 <handle_interrupt_in+0xbc>
    28c2:	f105 0320 	add.w	r3, r5, #32
    28c6:	f858 0023 	ldr.w	r0, [r8, r3, lsl #2]
    28ca:	b118      	cbz	r0, 28d4 <handle_interrupt_in+0xbc>
    28cc:	2101      	movs	r1, #1
    28ce:	f8d9 3000 	ldr.w	r3, [r9]
    28d2:	4798      	blx	r3
    28d4:	fa0a f505 	lsl.w	r5, r10, r5
    28d8:	62e5      	str	r5, [r4, #44]	; 0x2c
    28da:	1b7f      	subs	r7, r7, r5
    28dc:	e7ba      	b.n	2854 <handle_interrupt_in+0x3c>
    28de:	fab6 f586 	clz	r5, r6
    28e2:	f1c5 051f 	rsb	r5, r5, #31
    28e6:	b2ed      	uxtb	r5, r5
    28e8:	2d0f      	cmp	r5, #15
    28ea:	d808      	bhi.n	28fe <handle_interrupt_in+0xe6>
    28ec:	f105 0320 	add.w	r3, r5, #32
    28f0:	f857 0023 	ldr.w	r0, [r7, r3, lsl #2]
    28f4:	b118      	cbz	r0, 28fe <handle_interrupt_in+0xe6>
    28f6:	2102      	movs	r1, #2
    28f8:	f8d8 3000 	ldr.w	r3, [r8]
    28fc:	4798      	blx	r3
    28fe:	2301      	movs	r3, #1
    2900:	fa03 f505 	lsl.w	r5, r3, r5
    2904:	62e5      	str	r5, [r4, #44]	; 0x2c
    2906:	1b76      	subs	r6, r6, r5
    2908:	e7a8      	b.n	285c <handle_interrupt_in+0x44>
    290a:	bf00      	nop
    290c:	40028080 	.word	0x40028080
    2910:	10001864 	.word	0x10001864
    2914:	10001924 	.word	0x10001924

00002918 <gpio_irq_init>:
    2918:	b570      	push	{r4, r5, r6, lr}
    291a:	461e      	mov	r6, r3
    291c:	1c4b      	adds	r3, r1, #1
    291e:	4604      	mov	r4, r0
    2920:	d022      	beq.n	2968 <gpio_irq_init+0x50>
    2922:	4b12      	ldr	r3, [pc, #72]	; (296c <gpio_irq_init+0x54>)
    2924:	4d12      	ldr	r5, [pc, #72]	; (2970 <gpio_irq_init+0x58>)
    2926:	601a      	str	r2, [r3, #0]
    2928:	f021 031f 	bic.w	r3, r1, #31
    292c:	6003      	str	r3, [r0, #0]
    292e:	f001 031f 	and.w	r3, r1, #31
    2932:	f021 015f 	bic.w	r1, r1, #95	; 0x5f
    2936:	42a9      	cmp	r1, r5
    2938:	6043      	str	r3, [r0, #4]
    293a:	d002      	beq.n	2942 <gpio_irq_init+0x2a>
    293c:	480d      	ldr	r0, [pc, #52]	; (2974 <gpio_irq_init+0x5c>)
    293e:	f7fe fc0c 	bl	115a <error>
    2942:	6823      	ldr	r3, [r4, #0]
    2944:	6862      	ldr	r2, [r4, #4]
    2946:	42ab      	cmp	r3, r5
    2948:	490b      	ldr	r1, [pc, #44]	; (2978 <gpio_irq_init+0x60>)
    294a:	bf18      	it	ne
    294c:	3220      	addne	r2, #32
    294e:	f841 6022 	str.w	r6, [r1, r2, lsl #2]
    2952:	60a2      	str	r2, [r4, #8]
    2954:	4909      	ldr	r1, [pc, #36]	; (297c <gpio_irq_init+0x64>)
    2956:	2015      	movs	r0, #21
    2958:	f000 fdb0 	bl	34bc <__NVIC_SetVector>
    295c:	f44f 1200 	mov.w	r2, #2097152	; 0x200000
    2960:	4b07      	ldr	r3, [pc, #28]	; (2980 <gpio_irq_init+0x68>)
    2962:	2000      	movs	r0, #0
    2964:	601a      	str	r2, [r3, #0]
    2966:	bd70      	pop	{r4, r5, r6, pc}
    2968:	4608      	mov	r0, r1
    296a:	bd70      	pop	{r4, r5, r6, pc}
    296c:	10001924 	.word	0x10001924
    2970:	2009c000 	.word	0x2009c000
    2974:	000071d8 	.word	0x000071d8
    2978:	10001864 	.word	0x10001864
    297c:	00002819 	.word	0x00002819
    2980:	e000e100 	.word	0xe000e100

00002984 <gpio_irq_free>:
    2984:	2100      	movs	r1, #0
    2986:	6882      	ldr	r2, [r0, #8]
    2988:	4b01      	ldr	r3, [pc, #4]	; (2990 <gpio_irq_free+0xc>)
    298a:	f843 1022 	str.w	r1, [r3, r2, lsl #2]
    298e:	4770      	bx	lr
    2990:	10001864 	.word	0x10001864

00002994 <gpio_irq_set>:
    2994:	b530      	push	{r4, r5, lr}
    2996:	6803      	ldr	r3, [r0, #0]
    2998:	4d2c      	ldr	r5, [pc, #176]	; (2a4c <gpio_irq_set+0xb8>)
    299a:	42ab      	cmp	r3, r5
    299c:	d009      	beq.n	29b2 <gpio_irq_set+0x1e>
    299e:	4c2c      	ldr	r4, [pc, #176]	; (2a50 <gpio_irq_set+0xbc>)
    29a0:	42a3      	cmp	r3, r4
    29a2:	d017      	beq.n	29d4 <gpio_irq_set+0x40>
    29a4:	2901      	cmp	r1, #1
    29a6:	d130      	bne.n	2a0a <gpio_irq_set+0x76>
    29a8:	42ab      	cmp	r3, r5
    29aa:	d00a      	beq.n	29c2 <gpio_irq_set+0x2e>
    29ac:	42a3      	cmp	r3, r4
    29ae:	d019      	beq.n	29e4 <gpio_irq_set+0x50>
    29b0:	bd30      	pop	{r4, r5, pc}
    29b2:	2301      	movs	r3, #1
    29b4:	6844      	ldr	r4, [r0, #4]
    29b6:	2901      	cmp	r1, #1
    29b8:	fa03 f304 	lsl.w	r3, r3, r4
    29bc:	4c25      	ldr	r4, [pc, #148]	; (2a54 <gpio_irq_set+0xc0>)
    29be:	60e3      	str	r3, [r4, #12]
    29c0:	d130      	bne.n	2a24 <gpio_irq_set+0x90>
    29c2:	2301      	movs	r3, #1
    29c4:	6840      	ldr	r0, [r0, #4]
    29c6:	4923      	ldr	r1, [pc, #140]	; (2a54 <gpio_irq_set+0xc0>)
    29c8:	b1aa      	cbz	r2, 29f6 <gpio_irq_set+0x62>
    29ca:	690a      	ldr	r2, [r1, #16]
    29cc:	4083      	lsls	r3, r0
    29ce:	4313      	orrs	r3, r2
    29d0:	610b      	str	r3, [r1, #16]
    29d2:	bd30      	pop	{r4, r5, pc}
    29d4:	2301      	movs	r3, #1
    29d6:	6844      	ldr	r4, [r0, #4]
    29d8:	2901      	cmp	r1, #1
    29da:	fa03 f304 	lsl.w	r3, r3, r4
    29de:	4c1d      	ldr	r4, [pc, #116]	; (2a54 <gpio_irq_set+0xc0>)
    29e0:	62e3      	str	r3, [r4, #44]	; 0x2c
    29e2:	d116      	bne.n	2a12 <gpio_irq_set+0x7e>
    29e4:	2301      	movs	r3, #1
    29e6:	6840      	ldr	r0, [r0, #4]
    29e8:	491a      	ldr	r1, [pc, #104]	; (2a54 <gpio_irq_set+0xc0>)
    29ea:	b14a      	cbz	r2, 2a00 <gpio_irq_set+0x6c>
    29ec:	6b0a      	ldr	r2, [r1, #48]	; 0x30
    29ee:	4083      	lsls	r3, r0
    29f0:	4313      	orrs	r3, r2
    29f2:	630b      	str	r3, [r1, #48]	; 0x30
    29f4:	bd30      	pop	{r4, r5, pc}
    29f6:	690a      	ldr	r2, [r1, #16]
    29f8:	4083      	lsls	r3, r0
    29fa:	ea22 0303 	bic.w	r3, r2, r3
    29fe:	e7e7      	b.n	29d0 <gpio_irq_set+0x3c>
    2a00:	6b0a      	ldr	r2, [r1, #48]	; 0x30
    2a02:	4083      	lsls	r3, r0
    2a04:	ea22 0303 	bic.w	r3, r2, r3
    2a08:	e7f3      	b.n	29f2 <gpio_irq_set+0x5e>
    2a0a:	42ab      	cmp	r3, r5
    2a0c:	d00a      	beq.n	2a24 <gpio_irq_set+0x90>
    2a0e:	42a3      	cmp	r3, r4
    2a10:	d1ce      	bne.n	29b0 <gpio_irq_set+0x1c>
    2a12:	2301      	movs	r3, #1
    2a14:	6840      	ldr	r0, [r0, #4]
    2a16:	490f      	ldr	r1, [pc, #60]	; (2a54 <gpio_irq_set+0xc0>)
    2a18:	b192      	cbz	r2, 2a40 <gpio_irq_set+0xac>
    2a1a:	6b4a      	ldr	r2, [r1, #52]	; 0x34
    2a1c:	4083      	lsls	r3, r0
    2a1e:	4313      	orrs	r3, r2
    2a20:	634b      	str	r3, [r1, #52]	; 0x34
    2a22:	e7c5      	b.n	29b0 <gpio_irq_set+0x1c>
    2a24:	2301      	movs	r3, #1
    2a26:	6840      	ldr	r0, [r0, #4]
    2a28:	490a      	ldr	r1, [pc, #40]	; (2a54 <gpio_irq_set+0xc0>)
    2a2a:	b122      	cbz	r2, 2a36 <gpio_irq_set+0xa2>
    2a2c:	694a      	ldr	r2, [r1, #20]
    2a2e:	4083      	lsls	r3, r0
    2a30:	4313      	orrs	r3, r2
    2a32:	614b      	str	r3, [r1, #20]
    2a34:	bd30      	pop	{r4, r5, pc}
    2a36:	694a      	ldr	r2, [r1, #20]
    2a38:	4083      	lsls	r3, r0
    2a3a:	ea22 0303 	bic.w	r3, r2, r3
    2a3e:	e7f8      	b.n	2a32 <gpio_irq_set+0x9e>
    2a40:	6b4a      	ldr	r2, [r1, #52]	; 0x34
    2a42:	4083      	lsls	r3, r0
    2a44:	ea22 0303 	bic.w	r3, r2, r3
    2a48:	e7ea      	b.n	2a20 <gpio_irq_set+0x8c>
    2a4a:	bf00      	nop
    2a4c:	2009c000 	.word	0x2009c000
    2a50:	2009c040 	.word	0x2009c040
    2a54:	40028080 	.word	0x40028080

00002a58 <gpio_set>:
    2a58:	b510      	push	{r4, lr}
    2a5a:	2100      	movs	r1, #0
    2a5c:	4604      	mov	r4, r0
    2a5e:	f000 f9c7 	bl	2df0 <pin_function>
    2a62:	2001      	movs	r0, #1
    2a64:	f004 041f 	and.w	r4, r4, #31
    2a68:	40a0      	lsls	r0, r4
    2a6a:	bd10      	pop	{r4, pc}

00002a6c <gpio_init>:
    2a6c:	b538      	push	{r3, r4, r5, lr}
    2a6e:	4605      	mov	r5, r0
    2a70:	1c4b      	adds	r3, r1, #1
    2a72:	460c      	mov	r4, r1
    2a74:	6029      	str	r1, [r5, #0]
    2a76:	d00f      	beq.n	2a98 <gpio_init+0x2c>
    2a78:	4608      	mov	r0, r1
    2a7a:	f7ff ffed 	bl	2a58 <gpio_set>
    2a7e:	f024 041f 	bic.w	r4, r4, #31
    2a82:	f104 0318 	add.w	r3, r4, #24
    2a86:	60eb      	str	r3, [r5, #12]
    2a88:	f104 031c 	add.w	r3, r4, #28
    2a8c:	612b      	str	r3, [r5, #16]
    2a8e:	f104 0314 	add.w	r3, r4, #20
    2a92:	6068      	str	r0, [r5, #4]
    2a94:	616b      	str	r3, [r5, #20]
    2a96:	60ac      	str	r4, [r5, #8]
    2a98:	bd38      	pop	{r3, r4, r5, pc}

00002a9a <gpio_mode>:
    2a9a:	6800      	ldr	r0, [r0, #0]
    2a9c:	f000 b9c1 	b.w	2e22 <pin_mode>

00002aa0 <gpio_dir>:
    2aa0:	b111      	cbz	r1, 2aa8 <gpio_dir+0x8>
    2aa2:	2901      	cmp	r1, #1
    2aa4:	d007      	beq.n	2ab6 <gpio_dir+0x16>
    2aa6:	4770      	bx	lr
    2aa8:	6882      	ldr	r2, [r0, #8]
    2aaa:	6841      	ldr	r1, [r0, #4]
    2aac:	6813      	ldr	r3, [r2, #0]
    2aae:	ea23 0301 	bic.w	r3, r3, r1
    2ab2:	6013      	str	r3, [r2, #0]
    2ab4:	4770      	bx	lr
    2ab6:	6882      	ldr	r2, [r0, #8]
    2ab8:	6841      	ldr	r1, [r0, #4]
    2aba:	6813      	ldr	r3, [r2, #0]
    2abc:	430b      	orrs	r3, r1
    2abe:	e7f8      	b.n	2ab2 <gpio_dir+0x12>

00002ac0 <hal_sleep>:
    2ac0:	b508      	push	{r3, lr}
    2ac2:	f7fe faeb 	bl	109c <mbed_interface_disconnect>
    2ac6:	2200      	movs	r2, #0
    2ac8:	4b04      	ldr	r3, [pc, #16]	; (2adc <hal_sleep+0x1c>)
    2aca:	f8c3 20c0 	str.w	r2, [r3, #192]	; 0xc0
    2ace:	4a04      	ldr	r2, [pc, #16]	; (2ae0 <hal_sleep+0x20>)
    2ad0:	6913      	ldr	r3, [r2, #16]
    2ad2:	f023 0304 	bic.w	r3, r3, #4
    2ad6:	6113      	str	r3, [r2, #16]
    2ad8:	bf30      	wfi
    2ada:	bd08      	pop	{r3, pc}
    2adc:	400fc000 	.word	0x400fc000
    2ae0:	e000ed00 	.word	0xe000ed00

00002ae4 <us_ticker_init>:
    2ae4:	b508      	push	{r3, lr}
    2ae6:	4b10      	ldr	r3, [pc, #64]	; (2b28 <us_ticker_init+0x44>)
    2ae8:	6818      	ldr	r0, [r3, #0]
    2aea:	b9e0      	cbnz	r0, 2b26 <us_ticker_init+0x42>
    2aec:	2101      	movs	r1, #1
    2aee:	4a0f      	ldr	r2, [pc, #60]	; (2b2c <us_ticker_init+0x48>)
    2af0:	6019      	str	r1, [r3, #0]
    2af2:	f8d2 30c4 	ldr.w	r3, [r2, #196]	; 0xc4
    2af6:	f443 0300 	orr.w	r3, r3, #8388608	; 0x800000
    2afa:	f8c2 30c4 	str.w	r3, [r2, #196]	; 0xc4
    2afe:	f5a2 22d0 	sub.w	r2, r2, #425984	; 0x68000
    2b02:	6710      	str	r0, [r2, #112]	; 0x70
    2b04:	2002      	movs	r0, #2
    2b06:	4b0a      	ldr	r3, [pc, #40]	; (2b30 <us_ticker_init+0x4c>)
    2b08:	681b      	ldr	r3, [r3, #0]
    2b0a:	6050      	str	r0, [r2, #4]
    2b0c:	4809      	ldr	r0, [pc, #36]	; (2b34 <us_ticker_init+0x50>)
    2b0e:	fbb3 f3f0 	udiv	r3, r3, r0
    2b12:	3b01      	subs	r3, #1
    2b14:	60d3      	str	r3, [r2, #12]
    2b16:	2004      	movs	r0, #4
    2b18:	6051      	str	r1, [r2, #4]
    2b1a:	4907      	ldr	r1, [pc, #28]	; (2b38 <us_ticker_init+0x54>)
    2b1c:	f000 fcce 	bl	34bc <__NVIC_SetVector>
    2b20:	2210      	movs	r2, #16
    2b22:	4b06      	ldr	r3, [pc, #24]	; (2b3c <us_ticker_init+0x58>)
    2b24:	601a      	str	r2, [r3, #0]
    2b26:	bd08      	pop	{r3, pc}
    2b28:	10001928 	.word	0x10001928
    2b2c:	400fc000 	.word	0x400fc000
    2b30:	10000104 	.word	0x10000104
    2b34:	003d0900 	.word	0x003d0900
    2b38:	00000f19 	.word	0x00000f19
    2b3c:	e000e100 	.word	0xe000e100

00002b40 <us_ticker_read>:
    2b40:	b508      	push	{r3, lr}
    2b42:	4b04      	ldr	r3, [pc, #16]	; (2b54 <us_ticker_read+0x14>)
    2b44:	681b      	ldr	r3, [r3, #0]
    2b46:	b90b      	cbnz	r3, 2b4c <us_ticker_read+0xc>
    2b48:	f7ff ffcc 	bl	2ae4 <us_ticker_init>
    2b4c:	4b02      	ldr	r3, [pc, #8]	; (2b58 <us_ticker_read+0x18>)
    2b4e:	6898      	ldr	r0, [r3, #8]
    2b50:	bd08      	pop	{r3, pc}
    2b52:	bf00      	nop
    2b54:	10001928 	.word	0x10001928
    2b58:	40094000 	.word	0x40094000

00002b5c <us_ticker_set_interrupt>:
    2b5c:	4b03      	ldr	r3, [pc, #12]	; (2b6c <us_ticker_set_interrupt+0x10>)
    2b5e:	6198      	str	r0, [r3, #24]
    2b60:	695a      	ldr	r2, [r3, #20]
    2b62:	f042 0201 	orr.w	r2, r2, #1
    2b66:	615a      	str	r2, [r3, #20]
    2b68:	4770      	bx	lr
    2b6a:	bf00      	nop
    2b6c:	40094000 	.word	0x40094000

00002b70 <us_ticker_disable_interrupt>:
    2b70:	4a02      	ldr	r2, [pc, #8]	; (2b7c <us_ticker_disable_interrupt+0xc>)
    2b72:	6953      	ldr	r3, [r2, #20]
    2b74:	f023 0301 	bic.w	r3, r3, #1
    2b78:	6153      	str	r3, [r2, #20]
    2b7a:	4770      	bx	lr
    2b7c:	40094000 	.word	0x40094000

00002b80 <us_ticker_clear_interrupt>:
    2b80:	2201      	movs	r2, #1
    2b82:	4b01      	ldr	r3, [pc, #4]	; (2b88 <us_ticker_clear_interrupt+0x8>)
    2b84:	601a      	str	r2, [r3, #0]
    2b86:	4770      	bx	lr
    2b88:	40094000 	.word	0x40094000

00002b8c <pwmout_write>:
    2b8c:	b570      	push	{r4, r5, r6, lr}
    2b8e:	460d      	mov	r5, r1
    2b90:	4606      	mov	r6, r0
    2b92:	2100      	movs	r1, #0
    2b94:	4628      	mov	r0, r5
    2b96:	f002 fba9 	bl	52ec <__aeabi_fcmplt>
    2b9a:	b9e8      	cbnz	r0, 2bd8 <pwmout_write+0x4c>
    2b9c:	f04f 517e 	mov.w	r1, #1065353216	; 0x3f800000
    2ba0:	4628      	mov	r0, r5
    2ba2:	f002 fbc1 	bl	5328 <__aeabi_fcmpgt>
    2ba6:	b108      	cbz	r0, 2bac <pwmout_write+0x20>
    2ba8:	f04f 557e 	mov.w	r5, #1065353216	; 0x3f800000
    2bac:	4c0b      	ldr	r4, [pc, #44]	; (2bdc <pwmout_write+0x50>)
    2bae:	69a0      	ldr	r0, [r4, #24]
    2bb0:	f002 f9a6 	bl	4f00 <__aeabi_ui2f>
    2bb4:	4629      	mov	r1, r5
    2bb6:	f002 f9fb 	bl	4fb0 <__aeabi_fmul>
    2bba:	f002 fbe5 	bl	5388 <__aeabi_f2uiz>
    2bbe:	69a3      	ldr	r3, [r4, #24]
    2bc0:	7931      	ldrb	r1, [r6, #4]
    2bc2:	4298      	cmp	r0, r3
    2bc4:	6833      	ldr	r3, [r6, #0]
    2bc6:	bf08      	it	eq
    2bc8:	3001      	addeq	r0, #1
    2bca:	6018      	str	r0, [r3, #0]
    2bcc:	2301      	movs	r3, #1
    2bce:	6d22      	ldr	r2, [r4, #80]	; 0x50
    2bd0:	408b      	lsls	r3, r1
    2bd2:	4313      	orrs	r3, r2
    2bd4:	6523      	str	r3, [r4, #80]	; 0x50
    2bd6:	bd70      	pop	{r4, r5, r6, pc}
    2bd8:	2500      	movs	r5, #0
    2bda:	e7e7      	b.n	2bac <pwmout_write+0x20>
    2bdc:	40018000 	.word	0x40018000

00002be0 <pwmout_period_us>:
    2be0:	4b0b      	ldr	r3, [pc, #44]	; (2c10 <pwmout_period_us+0x30>)
    2be2:	b510      	push	{r4, lr}
    2be4:	681a      	ldr	r2, [r3, #0]
    2be6:	4b0b      	ldr	r3, [pc, #44]	; (2c14 <pwmout_period_us+0x34>)
    2be8:	434a      	muls	r2, r1
    2bea:	2102      	movs	r1, #2
    2bec:	6059      	str	r1, [r3, #4]
    2bee:	619a      	str	r2, [r3, #24]
    2bf0:	6999      	ldr	r1, [r3, #24]
    2bf2:	b131      	cbz	r1, 2c02 <pwmout_period_us+0x22>
    2bf4:	6800      	ldr	r0, [r0, #0]
    2bf6:	6801      	ldr	r1, [r0, #0]
    2bf8:	699c      	ldr	r4, [r3, #24]
    2bfa:	4351      	muls	r1, r2
    2bfc:	fbb1 f1f4 	udiv	r1, r1, r4
    2c00:	6001      	str	r1, [r0, #0]
    2c02:	6d1a      	ldr	r2, [r3, #80]	; 0x50
    2c04:	f042 0201 	orr.w	r2, r2, #1
    2c08:	651a      	str	r2, [r3, #80]	; 0x50
    2c0a:	2209      	movs	r2, #9
    2c0c:	605a      	str	r2, [r3, #4]
    2c0e:	bd10      	pop	{r4, pc}
    2c10:	1000192c 	.word	0x1000192c
    2c14:	40018000 	.word	0x40018000

00002c18 <pwmout_init>:
    2c18:	b570      	push	{r4, r5, r6, lr}
    2c1a:	460d      	mov	r5, r1
    2c1c:	4e1d      	ldr	r6, [pc, #116]	; (2c94 <pwmout_init+0x7c>)
    2c1e:	4604      	mov	r4, r0
    2c20:	4631      	mov	r1, r6
    2c22:	4628      	mov	r0, r5
    2c24:	f7fe fa28 	bl	1078 <pinmap_peripheral>
    2c28:	4b1b      	ldr	r3, [pc, #108]	; (2c98 <pwmout_init+0x80>)
    2c2a:	7120      	strb	r0, [r4, #4]
    2c2c:	b2c0      	uxtb	r0, r0
    2c2e:	f853 3020 	ldr.w	r3, [r3, r0, lsl #2]
    2c32:	6023      	str	r3, [r4, #0]
    2c34:	4b19      	ldr	r3, [pc, #100]	; (2c9c <pwmout_init+0x84>)
    2c36:	f8d3 20c4 	ldr.w	r2, [r3, #196]	; 0xc4
    2c3a:	f042 0240 	orr.w	r2, r2, #64	; 0x40
    2c3e:	f8c3 20c4 	str.w	r2, [r3, #196]	; 0xc4
    2c42:	f8d3 21a8 	ldr.w	r2, [r3, #424]	; 0x1a8
    2c46:	f422 5240 	bic.w	r2, r2, #12288	; 0x3000
    2c4a:	f8c3 21a8 	str.w	r2, [r3, #424]	; 0x1a8
    2c4e:	2200      	movs	r2, #0
    2c50:	f5a3 2364 	sub.w	r3, r3, #933888	; 0xe4000
    2c54:	60da      	str	r2, [r3, #12]
    2c56:	2202      	movs	r2, #2
    2c58:	615a      	str	r2, [r3, #20]
    2c5a:	f100 0208 	add.w	r2, r0, #8
    2c5e:	2001      	movs	r0, #1
    2c60:	6cd9      	ldr	r1, [r3, #76]	; 0x4c
    2c62:	4090      	lsls	r0, r2
    2c64:	4308      	orrs	r0, r1
    2c66:	64d8      	str	r0, [r3, #76]	; 0x4c
    2c68:	4b0d      	ldr	r3, [pc, #52]	; (2ca0 <pwmout_init+0x88>)
    2c6a:	4a0e      	ldr	r2, [pc, #56]	; (2ca4 <pwmout_init+0x8c>)
    2c6c:	681b      	ldr	r3, [r3, #0]
    2c6e:	4620      	mov	r0, r4
    2c70:	fbb3 f3f2 	udiv	r3, r3, r2
    2c74:	4a0c      	ldr	r2, [pc, #48]	; (2ca8 <pwmout_init+0x90>)
    2c76:	f644 6120 	movw	r1, #20000	; 0x4e20
    2c7a:	6013      	str	r3, [r2, #0]
    2c7c:	f7ff ffb0 	bl	2be0 <pwmout_period_us>
    2c80:	4620      	mov	r0, r4
    2c82:	2100      	movs	r1, #0
    2c84:	f7ff ff82 	bl	2b8c <pwmout_write>
    2c88:	4631      	mov	r1, r6
    2c8a:	4628      	mov	r0, r5
    2c8c:	e8bd 4070 	ldmia.w	sp!, {r4, r5, r6, lr}
    2c90:	f7fe b9b8 	b.w	1004 <pinmap_pinout>
    2c94:	00007208 	.word	0x00007208
    2c98:	100000e8 	.word	0x100000e8
    2c9c:	400fc000 	.word	0x400fc000
    2ca0:	10000104 	.word	0x10000104
    2ca4:	003d0900 	.word	0x003d0900
    2ca8:	1000192c 	.word	0x1000192c

00002cac <pwmout_pulsewidth_us>:
    2cac:	4b08      	ldr	r3, [pc, #32]	; (2cd0 <pwmout_pulsewidth_us+0x24>)
    2cae:	681b      	ldr	r3, [r3, #0]
    2cb0:	4359      	muls	r1, r3
    2cb2:	4b08      	ldr	r3, [pc, #32]	; (2cd4 <pwmout_pulsewidth_us+0x28>)
    2cb4:	699a      	ldr	r2, [r3, #24]
    2cb6:	4291      	cmp	r1, r2
    2cb8:	6802      	ldr	r2, [r0, #0]
    2cba:	bf08      	it	eq
    2cbc:	3101      	addeq	r1, #1
    2cbe:	6011      	str	r1, [r2, #0]
    2cc0:	2201      	movs	r2, #1
    2cc2:	7900      	ldrb	r0, [r0, #4]
    2cc4:	6d19      	ldr	r1, [r3, #80]	; 0x50
    2cc6:	4082      	lsls	r2, r0
    2cc8:	430a      	orrs	r2, r1
    2cca:	651a      	str	r2, [r3, #80]	; 0x50
    2ccc:	4770      	bx	lr
    2cce:	bf00      	nop
    2cd0:	1000192c 	.word	0x1000192c
    2cd4:	40018000 	.word	0x40018000

00002cd8 <pwmout_pulsewidth>:
    2cd8:	b510      	push	{r4, lr}
    2cda:	4604      	mov	r4, r0
    2cdc:	4608      	mov	r0, r1
    2cde:	4905      	ldr	r1, [pc, #20]	; (2cf4 <pwmout_pulsewidth+0x1c>)
    2ce0:	f002 f966 	bl	4fb0 <__aeabi_fmul>
    2ce4:	f002 fb2a 	bl	533c <__aeabi_f2iz>
    2ce8:	4601      	mov	r1, r0
    2cea:	4620      	mov	r0, r4
    2cec:	e8bd 4010 	ldmia.w	sp!, {r4, lr}
    2cf0:	f7ff bfdc 	b.w	2cac <pwmout_pulsewidth_us>
    2cf4:	49742400 	.word	0x49742400

00002cf8 <adc_read>:
    2cf8:	4b0c      	ldr	r3, [pc, #48]	; (2d2c <adc_read+0x34>)
    2cfa:	7800      	ldrb	r0, [r0, #0]
    2cfc:	681a      	ldr	r2, [r3, #0]
    2cfe:	f022 02ff 	bic.w	r2, r2, #255	; 0xff
    2d02:	601a      	str	r2, [r3, #0]
    2d04:	2201      	movs	r2, #1
    2d06:	6819      	ldr	r1, [r3, #0]
    2d08:	4082      	lsls	r2, r0
    2d0a:	430a      	orrs	r2, r1
    2d0c:	601a      	str	r2, [r3, #0]
    2d0e:	681a      	ldr	r2, [r3, #0]
    2d10:	f042 7280 	orr.w	r2, r2, #16777216	; 0x1000000
    2d14:	601a      	str	r2, [r3, #0]
    2d16:	6858      	ldr	r0, [r3, #4]
    2d18:	2800      	cmp	r0, #0
    2d1a:	dafc      	bge.n	2d16 <adc_read+0x1e>
    2d1c:	681a      	ldr	r2, [r3, #0]
    2d1e:	f3c0 100b 	ubfx	r0, r0, #4, #12
    2d22:	f022 7280 	bic.w	r2, r2, #16777216	; 0x1000000
    2d26:	601a      	str	r2, [r3, #0]
    2d28:	4770      	bx	lr
    2d2a:	bf00      	nop
    2d2c:	40034000 	.word	0x40034000

00002d30 <adc_read_u32>:
    2d30:	b570      	push	{r4, r5, r6, lr}
    2d32:	4606      	mov	r6, r0
    2d34:	f7ff ffe0 	bl	2cf8 <adc_read>
    2d38:	4604      	mov	r4, r0
    2d3a:	4630      	mov	r0, r6
    2d3c:	f7ff ffdc 	bl	2cf8 <adc_read>
    2d40:	4605      	mov	r5, r0
    2d42:	4630      	mov	r0, r6
    2d44:	f7ff ffd8 	bl	2cf8 <adc_read>
    2d48:	42ac      	cmp	r4, r5
    2d4a:	bf82      	ittt	hi
    2d4c:	4623      	movhi	r3, r4
    2d4e:	462c      	movhi	r4, r5
    2d50:	461d      	movhi	r5, r3
    2d52:	42a8      	cmp	r0, r5
    2d54:	bf28      	it	cs
    2d56:	4628      	movcs	r0, r5
    2d58:	42a0      	cmp	r0, r4
    2d5a:	bf38      	it	cc
    2d5c:	4620      	movcc	r0, r4
    2d5e:	bd70      	pop	{r4, r5, r6, pc}

00002d60 <analogin_init>:
    2d60:	b570      	push	{r4, r5, r6, lr}
    2d62:	460c      	mov	r4, r1
    2d64:	4d16      	ldr	r5, [pc, #88]	; (2dc0 <analogin_init+0x60>)
    2d66:	4606      	mov	r6, r0
    2d68:	4629      	mov	r1, r5
    2d6a:	4620      	mov	r0, r4
    2d6c:	f7fe f984 	bl	1078 <pinmap_peripheral>
    2d70:	4b14      	ldr	r3, [pc, #80]	; (2dc4 <analogin_init+0x64>)
    2d72:	7030      	strb	r0, [r6, #0]
    2d74:	f8d3 20c4 	ldr.w	r2, [r3, #196]	; 0xc4
    2d78:	4629      	mov	r1, r5
    2d7a:	f442 5280 	orr.w	r2, r2, #4096	; 0x1000
    2d7e:	f8c3 20c4 	str.w	r2, [r3, #196]	; 0xc4
    2d82:	f8d3 21a8 	ldr.w	r2, [r3, #424]	; 0x1a8
    2d86:	4620      	mov	r0, r4
    2d88:	e8bd 4070 	ldmia.w	sp!, {r4, r5, r6, lr}
    2d8c:	f022 7240 	bic.w	r2, r2, #50331648	; 0x3000000
    2d90:	f8c3 21a8 	str.w	r2, [r3, #424]	; 0x1a8
    2d94:	f8d3 21a8 	ldr.w	r2, [r3, #424]	; 0x1a8
    2d98:	f042 7280 	orr.w	r2, r2, #16777216	; 0x1000000
    2d9c:	f8c3 21a8 	str.w	r2, [r3, #424]	; 0x1a8
    2da0:	4b09      	ldr	r3, [pc, #36]	; (2dc8 <analogin_init+0x68>)
    2da2:	681a      	ldr	r2, [r3, #0]
    2da4:	4b09      	ldr	r3, [pc, #36]	; (2dcc <analogin_init+0x6c>)
    2da6:	4413      	add	r3, r2
    2da8:	4a09      	ldr	r2, [pc, #36]	; (2dd0 <analogin_init+0x70>)
    2daa:	fb93 f3f2 	sdiv	r3, r3, r2
    2dae:	3b01      	subs	r3, #1
    2db0:	021b      	lsls	r3, r3, #8
    2db2:	4a08      	ldr	r2, [pc, #32]	; (2dd4 <analogin_init+0x74>)
    2db4:	f443 1300 	orr.w	r3, r3, #2097152	; 0x200000
    2db8:	6013      	str	r3, [r2, #0]
    2dba:	f7fe b923 	b.w	1004 <pinmap_pinout>
    2dbe:	bf00      	nop
    2dc0:	000072bc 	.word	0x000072bc
    2dc4:	400fc000 	.word	0x400fc000
    2dc8:	10000104 	.word	0x10000104
    2dcc:	00c65d3f 	.word	0x00c65d3f
    2dd0:	00c65d40 	.word	0x00c65d40
    2dd4:	40034000 	.word	0x40034000

00002dd8 <analogin_read>:
    2dd8:	b508      	push	{r3, lr}
    2dda:	f7ff ffa9 	bl	2d30 <adc_read_u32>
    2dde:	f002 f88f 	bl	4f00 <__aeabi_ui2f>
    2de2:	4902      	ldr	r1, [pc, #8]	; (2dec <analogin_read+0x14>)
    2de4:	f002 f8e4 	bl	4fb0 <__aeabi_fmul>
    2de8:	bd08      	pop	{r3, pc}
    2dea:	bf00      	nop
    2dec:	39800801 	.word	0x39800801

00002df0 <pin_function>:
    2df0:	b510      	push	{r4, lr}
    2df2:	2403      	movs	r4, #3
    2df4:	f100 4060 	add.w	r0, r0, #3758096384	; 0xe0000000
    2df8:	f5a0 201c 	sub.w	r0, r0, #638976	; 0x9c000
    2dfc:	0043      	lsls	r3, r0, #1
    2dfe:	0900      	lsrs	r0, r0, #4
    2e00:	0080      	lsls	r0, r0, #2
    2e02:	f100 4080 	add.w	r0, r0, #1073741824	; 0x40000000
    2e06:	f500 3030 	add.w	r0, r0, #180224	; 0x2c000
    2e0a:	6802      	ldr	r2, [r0, #0]
    2e0c:	f003 031e 	and.w	r3, r3, #30
    2e10:	409c      	lsls	r4, r3
    2e12:	ea22 0204 	bic.w	r2, r2, r4
    2e16:	6002      	str	r2, [r0, #0]
    2e18:	6802      	ldr	r2, [r0, #0]
    2e1a:	4099      	lsls	r1, r3
    2e1c:	4311      	orrs	r1, r2
    2e1e:	6001      	str	r1, [r0, #0]
    2e20:	bd10      	pop	{r4, pc}

00002e22 <pin_mode>:
    2e22:	f100 4060 	add.w	r0, r0, #3758096384	; 0xe0000000
    2e26:	f5a0 201c 	sub.w	r0, r0, #638976	; 0x9c000
    2e2a:	0943      	lsrs	r3, r0, #5
    2e2c:	009b      	lsls	r3, r3, #2
    2e2e:	f103 4380 	add.w	r3, r3, #1073741824	; 0x40000000
    2e32:	f503 3330 	add.w	r3, r3, #180224	; 0x2c000
    2e36:	b530      	push	{r4, r5, lr}
    2e38:	f000 021f 	and.w	r2, r0, #31
    2e3c:	6e9c      	ldr	r4, [r3, #104]	; 0x68
    2e3e:	f3c1 0580 	ubfx	r5, r1, #2, #1
    2e42:	fa05 f202 	lsl.w	r2, r5, r2
    2e46:	ea24 0402 	bic.w	r4, r4, r2
    2e4a:	669c      	str	r4, [r3, #104]	; 0x68
    2e4c:	6e9c      	ldr	r4, [r3, #104]	; 0x68
    2e4e:	4322      	orrs	r2, r4
    2e50:	669a      	str	r2, [r3, #104]	; 0x68
    2e52:	b995      	cbnz	r5, 2e7a <pin_mode+0x58>
    2e54:	2403      	movs	r4, #3
    2e56:	0043      	lsls	r3, r0, #1
    2e58:	0900      	lsrs	r0, r0, #4
    2e5a:	0080      	lsls	r0, r0, #2
    2e5c:	f100 4080 	add.w	r0, r0, #1073741824	; 0x40000000
    2e60:	f500 3030 	add.w	r0, r0, #180224	; 0x2c000
    2e64:	6c02      	ldr	r2, [r0, #64]	; 0x40
    2e66:	f003 031e 	and.w	r3, r3, #30
    2e6a:	409c      	lsls	r4, r3
    2e6c:	ea22 0204 	bic.w	r2, r2, r4
    2e70:	6402      	str	r2, [r0, #64]	; 0x40
    2e72:	6c02      	ldr	r2, [r0, #64]	; 0x40
    2e74:	4099      	lsls	r1, r3
    2e76:	4311      	orrs	r1, r2
    2e78:	6401      	str	r1, [r0, #64]	; 0x40
    2e7a:	bd30      	pop	{r4, r5, pc}

00002e7c <uart_irq>:
    2e7c:	2801      	cmp	r0, #1
    2e7e:	b410      	push	{r4}
    2e80:	d008      	beq.n	2e94 <uart_irq+0x18>
    2e82:	2802      	cmp	r0, #2
    2e84:	d008      	beq.n	2e98 <uart_irq+0x1c>
    2e86:	bc10      	pop	{r4}
    2e88:	4770      	bx	lr
    2e8a:	6850      	ldr	r0, [r2, #4]
    2e8c:	f020 0001 	bic.w	r0, r0, #1
    2e90:	6050      	str	r0, [r2, #4]
    2e92:	e010      	b.n	2eb6 <uart_irq+0x3a>
    2e94:	4603      	mov	r3, r0
    2e96:	e00e      	b.n	2eb6 <uart_irq+0x3a>
    2e98:	2338      	movs	r3, #56	; 0x38
    2e9a:	480f      	ldr	r0, [pc, #60]	; (2ed8 <uart_irq+0x5c>)
    2e9c:	fb03 0301 	mla	r3, r3, r1, r0
    2ea0:	6858      	ldr	r0, [r3, #4]
    2ea2:	3001      	adds	r0, #1
    2ea4:	d006      	beq.n	2eb4 <uart_irq+0x38>
    2ea6:	6918      	ldr	r0, [r3, #16]
    2ea8:	689c      	ldr	r4, [r3, #8]
    2eaa:	6004      	str	r4, [r0, #0]
    2eac:	f893 3036 	ldrb.w	r3, [r3, #54]	; 0x36
    2eb0:	2b00      	cmp	r3, #0
    2eb2:	d0ea      	beq.n	2e8a <uart_irq+0xe>
    2eb4:	2300      	movs	r3, #0
    2eb6:	2238      	movs	r2, #56	; 0x38
    2eb8:	4351      	muls	r1, r2
    2eba:	4807      	ldr	r0, [pc, #28]	; (2ed8 <uart_irq+0x5c>)
    2ebc:	1842      	adds	r2, r0, r1
    2ebe:	5840      	ldr	r0, [r0, r1]
    2ec0:	2800      	cmp	r0, #0
    2ec2:	d0e0      	beq.n	2e86 <uart_irq+0xa>
    2ec4:	b91b      	cbnz	r3, 2ece <uart_irq+0x52>
    2ec6:	f892 2036 	ldrb.w	r2, [r2, #54]	; 0x36
    2eca:	2a00      	cmp	r2, #0
    2ecc:	d0db      	beq.n	2e86 <uart_irq+0xa>
    2ece:	4a03      	ldr	r2, [pc, #12]	; (2edc <uart_irq+0x60>)
    2ed0:	4619      	mov	r1, r3
    2ed2:	6812      	ldr	r2, [r2, #0]
    2ed4:	bc10      	pop	{r4}
    2ed6:	4710      	bx	r2
    2ed8:	10001938 	.word	0x10001938
    2edc:	10001930 	.word	0x10001930

00002ee0 <uart0_irq>:
    2ee0:	4a03      	ldr	r2, [pc, #12]	; (2ef0 <uart0_irq+0x10>)
    2ee2:	2100      	movs	r1, #0
    2ee4:	6890      	ldr	r0, [r2, #8]
    2ee6:	f3c0 0042 	ubfx	r0, r0, #1, #3
    2eea:	f7ff bfc7 	b.w	2e7c <uart_irq>
    2eee:	bf00      	nop
    2ef0:	4000c000 	.word	0x4000c000

00002ef4 <uart1_irq>:
    2ef4:	4a03      	ldr	r2, [pc, #12]	; (2f04 <uart1_irq+0x10>)
    2ef6:	2101      	movs	r1, #1
    2ef8:	6890      	ldr	r0, [r2, #8]
    2efa:	f3c0 0042 	ubfx	r0, r0, #1, #3
    2efe:	f7ff bfbd 	b.w	2e7c <uart_irq>
    2f02:	bf00      	nop
    2f04:	40010000 	.word	0x40010000

00002f08 <uart2_irq>:
    2f08:	4a03      	ldr	r2, [pc, #12]	; (2f18 <uart2_irq+0x10>)
    2f0a:	2102      	movs	r1, #2
    2f0c:	6890      	ldr	r0, [r2, #8]
    2f0e:	f3c0 0042 	ubfx	r0, r0, #1, #3
    2f12:	f7ff bfb3 	b.w	2e7c <uart_irq>
    2f16:	bf00      	nop
    2f18:	40098000 	.word	0x40098000

00002f1c <uart3_irq>:
    2f1c:	4a03      	ldr	r2, [pc, #12]	; (2f2c <uart3_irq+0x10>)
    2f1e:	2103      	movs	r1, #3
    2f20:	6890      	ldr	r0, [r2, #8]
    2f22:	f3c0 0042 	ubfx	r0, r0, #1, #3
    2f26:	f7ff bfa9 	b.w	2e7c <uart_irq>
    2f2a:	bf00      	nop
    2f2c:	4009c000 	.word	0x4009c000

00002f30 <serial_irq_set_internal>:
    2f30:	b570      	push	{r4, r5, r6, lr}
    2f32:	460b      	mov	r3, r1
    2f34:	6806      	ldr	r6, [r0, #0]
    2f36:	4929      	ldr	r1, [pc, #164]	; (2fdc <serial_irq_set_internal+0xac>)
    2f38:	428e      	cmp	r6, r1
    2f3a:	d022      	beq.n	2f82 <serial_irq_set_internal+0x52>
    2f3c:	dc06      	bgt.n	2f4c <serial_irq_set_internal+0x1c>
    2f3e:	f5a1 4180 	sub.w	r1, r1, #16384	; 0x4000
    2f42:	428e      	cmp	r6, r1
    2f44:	d00c      	beq.n	2f60 <serial_irq_set_internal+0x30>
    2f46:	2100      	movs	r1, #0
    2f48:	460c      	mov	r4, r1
    2f4a:	e00b      	b.n	2f64 <serial_irq_set_internal+0x34>
    2f4c:	4924      	ldr	r1, [pc, #144]	; (2fe0 <serial_irq_set_internal+0xb0>)
    2f4e:	428e      	cmp	r6, r1
    2f50:	d01a      	beq.n	2f88 <serial_irq_set_internal+0x58>
    2f52:	f501 4180 	add.w	r1, r1, #16384	; 0x4000
    2f56:	428e      	cmp	r6, r1
    2f58:	d1f5      	bne.n	2f46 <serial_irq_set_internal+0x16>
    2f5a:	4922      	ldr	r1, [pc, #136]	; (2fe4 <serial_irq_set_internal+0xb4>)
    2f5c:	2408      	movs	r4, #8
    2f5e:	e001      	b.n	2f64 <serial_irq_set_internal+0x34>
    2f60:	2405      	movs	r4, #5
    2f62:	4921      	ldr	r1, [pc, #132]	; (2fe8 <serial_irq_set_internal+0xb8>)
    2f64:	b19a      	cbz	r2, 2f8e <serial_irq_set_internal+0x5e>
    2f66:	2501      	movs	r5, #1
    2f68:	6872      	ldr	r2, [r6, #4]
    2f6a:	fa05 f303 	lsl.w	r3, r5, r3
    2f6e:	4313      	orrs	r3, r2
    2f70:	6073      	str	r3, [r6, #4]
    2f72:	4620      	mov	r0, r4
    2f74:	f000 faa2 	bl	34bc <__NVIC_SetVector>
    2f78:	4b1c      	ldr	r3, [pc, #112]	; (2fec <serial_irq_set_internal+0xbc>)
    2f7a:	fa05 f404 	lsl.w	r4, r5, r4
    2f7e:	601c      	str	r4, [r3, #0]
    2f80:	bd70      	pop	{r4, r5, r6, pc}
    2f82:	491b      	ldr	r1, [pc, #108]	; (2ff0 <serial_irq_set_internal+0xc0>)
    2f84:	2406      	movs	r4, #6
    2f86:	e7ed      	b.n	2f64 <serial_irq_set_internal+0x34>
    2f88:	491a      	ldr	r1, [pc, #104]	; (2ff4 <serial_irq_set_internal+0xc4>)
    2f8a:	2407      	movs	r4, #7
    2f8c:	e7ea      	b.n	2f64 <serial_irq_set_internal+0x34>
    2f8e:	2b01      	cmp	r3, #1
    2f90:	d00a      	beq.n	2fa8 <serial_irq_set_internal+0x78>
    2f92:	6842      	ldr	r2, [r0, #4]
    2f94:	2038      	movs	r0, #56	; 0x38
    2f96:	4918      	ldr	r1, [pc, #96]	; (2ff8 <serial_irq_set_internal+0xc8>)
    2f98:	fb00 1202 	mla	r2, r0, r2, r1
    2f9c:	f892 1036 	ldrb.w	r1, [r2, #54]	; 0x36
    2fa0:	f892 2035 	ldrb.w	r2, [r2, #53]	; 0x35
    2fa4:	42d1      	cmn	r1, r2
    2fa6:	d117      	bne.n	2fd8 <serial_irq_set_internal+0xa8>
    2fa8:	2201      	movs	r2, #1
    2faa:	fa02 f003 	lsl.w	r0, r2, r3
    2fae:	fab3 f383 	clz	r3, r3
    2fb2:	6871      	ldr	r1, [r6, #4]
    2fb4:	095b      	lsrs	r3, r3, #5
    2fb6:	ea21 0100 	bic.w	r1, r1, r0
    2fba:	6071      	str	r1, [r6, #4]
    2fbc:	6871      	ldr	r1, [r6, #4]
    2fbe:	fa02 f303 	lsl.w	r3, r2, r3
    2fc2:	420b      	tst	r3, r1
    2fc4:	d108      	bne.n	2fd8 <serial_irq_set_internal+0xa8>
    2fc6:	4b09      	ldr	r3, [pc, #36]	; (2fec <serial_irq_set_internal+0xbc>)
    2fc8:	fa02 f404 	lsl.w	r4, r2, r4
    2fcc:	f8c3 4080 	str.w	r4, [r3, #128]	; 0x80
    2fd0:	f3bf 8f4f 	dsb	sy
    2fd4:	f3bf 8f6f 	isb	sy
    2fd8:	bd70      	pop	{r4, r5, r6, pc}
    2fda:	bf00      	nop
    2fdc:	40010000 	.word	0x40010000
    2fe0:	40098000 	.word	0x40098000
    2fe4:	00002f1d 	.word	0x00002f1d
    2fe8:	00002ee1 	.word	0x00002ee1
    2fec:	e000e100 	.word	0xe000e100
    2ff0:	00002ef5 	.word	0x00002ef5
    2ff4:	00002f09 	.word	0x00002f09
    2ff8:	10001938 	.word	0x10001938

00002ffc <serial_baud>:
    2ffc:	e92d 4ff0 	stmdb	sp!, {r4, r5, r6, r7, r8, r9, r10, r11, lr}
    3000:	4b64      	ldr	r3, [pc, #400]	; (3194 <serial_baud+0x198>)
    3002:	6804      	ldr	r4, [r0, #0]
    3004:	b087      	sub	sp, #28
    3006:	429c      	cmp	r4, r3
    3008:	f000 808d 	beq.w	3126 <serial_baud+0x12a>
    300c:	dc6a      	bgt.n	30e4 <serial_baud+0xe8>
    300e:	f5a3 4380 	sub.w	r3, r3, #16384	; 0x4000
    3012:	429c      	cmp	r4, r3
    3014:	d079      	beq.n	310a <serial_baud+0x10e>
    3016:	4b60      	ldr	r3, [pc, #384]	; (3198 <serial_baud+0x19c>)
    3018:	0108      	lsls	r0, r1, #4
    301a:	f8d3 c000 	ldr.w	r12, [r3]
    301e:	fbbc f2f0 	udiv	r2, r12, r0
    3022:	b293      	uxth	r3, r2
    3024:	fb00 c212 	mls	r2, r0, r2, r12
    3028:	2a00      	cmp	r2, #0
    302a:	f000 80aa 	beq.w	3182 <serial_baud+0x186>
    302e:	2501      	movs	r5, #1
    3030:	46e6      	mov	lr, r12
    3032:	4699      	mov	r9, r3
    3034:	46ab      	mov	r11, r5
    3036:	f04f 0a00 	mov.w	r10, #0
    303a:	9101      	str	r1, [sp, #4]
    303c:	9103      	str	r1, [sp, #12]
    303e:	2600      	movs	r6, #0
    3040:	ea4f 034e 	mov.w	r3, lr, lsl #1
    3044:	9304      	str	r3, [sp, #16]
    3046:	f8dd 8004 	ldr.w	r8, [sp, #4]
    304a:	ea4f 038e 	mov.w	r3, lr, lsl #2
    304e:	b2ef      	uxtb	r7, r5
    3050:	9305      	str	r3, [sp, #20]
    3052:	b2f3      	uxtb	r3, r6
    3054:	9300      	str	r3, [sp, #0]
    3056:	9b04      	ldr	r3, [sp, #16]
    3058:	2b00      	cmp	r3, #0
    305a:	bfab      	itete	ge
    305c:	9b05      	ldrge	r3, [sp, #20]
    305e:	fbb3 f3f8 	udivlt	r3, r3, r8
    3062:	fbb3 f3f8 	udivge	r3, r3, r8
    3066:	091b      	lsrlt	r3, r3, #4
    3068:	bfa8      	it	ge
    306a:	095b      	lsrge	r3, r3, #5
    306c:	3301      	adds	r3, #1
    306e:	f3c3 034f 	ubfx	r3, r3, #1, #16
    3072:	2b00      	cmp	r3, #0
    3074:	f000 8088 	beq.w	3188 <serial_baud+0x18c>
    3078:	b116      	cbz	r6, 3080 <serial_baud+0x84>
    307a:	2b01      	cmp	r3, #1
    307c:	bf08      	it	eq
    307e:	2302      	moveq	r3, #2
    3080:	19a8      	adds	r0, r5, r6
    3082:	4358      	muls	r0, r3
    3084:	00c0      	lsls	r0, r0, #3
    3086:	fbbe f0f0 	udiv	r0, lr, r0
    308a:	3001      	adds	r0, #1
    308c:	ebc1 0050 	rsb	r0, r1, r0, lsr #1
    3090:	2800      	cmp	r0, #0
    3092:	bfb8      	it	lt
    3094:	4240      	neglt	r0, r0
    3096:	9002      	str	r0, [sp, #8]
    3098:	9a02      	ldr	r2, [sp, #8]
    309a:	9803      	ldr	r0, [sp, #12]
    309c:	4282      	cmp	r2, r0
    309e:	da62      	bge.n	3166 <serial_baud+0x16a>
    30a0:	4291      	cmp	r1, r2
    30a2:	d15a      	bne.n	315a <serial_baud+0x15e>
    30a4:	2d0f      	cmp	r5, #15
    30a6:	d107      	bne.n	30b8 <serial_baud+0xbc>
    30a8:	46bb      	mov	r11, r7
    30aa:	4699      	mov	r9, r3
    30ac:	f8dd a000 	ldr.w	r10, [sp]
    30b0:	465f      	mov	r7, r11
    30b2:	464b      	mov	r3, r9
    30b4:	f8cd a000 	str.w	r10, [sp]
    30b8:	7b21      	ldrb	r1, [r4, #12]
    30ba:	f041 0180 	orr.w	r1, r1, #128	; 0x80
    30be:	7321      	strb	r1, [r4, #12]
    30c0:	f3c3 2107 	ubfx	r1, r3, #8, #8
    30c4:	b2db      	uxtb	r3, r3
    30c6:	7121      	strb	r1, [r4, #4]
    30c8:	7023      	strb	r3, [r4, #0]
    30ca:	9b00      	ldr	r3, [sp, #0]
    30cc:	ea43 1207 	orr.w	r2, r3, r7, lsl #4
    30d0:	b2d2      	uxtb	r2, r2
    30d2:	f884 2028 	strb.w	r2, [r4, #40]	; 0x28
    30d6:	7b23      	ldrb	r3, [r4, #12]
    30d8:	f003 037f 	and.w	r3, r3, #127	; 0x7f
    30dc:	7323      	strb	r3, [r4, #12]
    30de:	b007      	add	sp, #28
    30e0:	e8bd 8ff0 	ldmia.w	sp!, {r4, r5, r6, r7, r8, r9, r10, r11, pc}
    30e4:	4b2d      	ldr	r3, [pc, #180]	; (319c <serial_baud+0x1a0>)
    30e6:	429c      	cmp	r4, r3
    30e8:	d029      	beq.n	313e <serial_baud+0x142>
    30ea:	f503 4380 	add.w	r3, r3, #16384	; 0x4000
    30ee:	429c      	cmp	r4, r3
    30f0:	d191      	bne.n	3016 <serial_baud+0x1a>
    30f2:	4b2b      	ldr	r3, [pc, #172]	; (31a0 <serial_baud+0x1a4>)
    30f4:	f8d3 21ac 	ldr.w	r2, [r3, #428]	; 0x1ac
    30f8:	f422 2240 	bic.w	r2, r2, #786432	; 0xc0000
    30fc:	f8c3 21ac 	str.w	r2, [r3, #428]	; 0x1ac
    3100:	f8d3 21ac 	ldr.w	r2, [r3, #428]	; 0x1ac
    3104:	f442 2280 	orr.w	r2, r2, #262144	; 0x40000
    3108:	e024      	b.n	3154 <serial_baud+0x158>
    310a:	4b25      	ldr	r3, [pc, #148]	; (31a0 <serial_baud+0x1a4>)
    310c:	f8d3 21a8 	ldr.w	r2, [r3, #424]	; 0x1a8
    3110:	f022 02c0 	bic.w	r2, r2, #192	; 0xc0
    3114:	f8c3 21a8 	str.w	r2, [r3, #424]	; 0x1a8
    3118:	f8d3 21a8 	ldr.w	r2, [r3, #424]	; 0x1a8
    311c:	f042 0240 	orr.w	r2, r2, #64	; 0x40
    3120:	f8c3 21a8 	str.w	r2, [r3, #424]	; 0x1a8
    3124:	e777      	b.n	3016 <serial_baud+0x1a>
    3126:	4b1e      	ldr	r3, [pc, #120]	; (31a0 <serial_baud+0x1a4>)
    3128:	f8d3 21a8 	ldr.w	r2, [r3, #424]	; 0x1a8
    312c:	f422 7240 	bic.w	r2, r2, #768	; 0x300
    3130:	f8c3 21a8 	str.w	r2, [r3, #424]	; 0x1a8
    3134:	f8d3 21a8 	ldr.w	r2, [r3, #424]	; 0x1a8
    3138:	f442 7280 	orr.w	r2, r2, #256	; 0x100
    313c:	e7f0      	b.n	3120 <serial_baud+0x124>
    313e:	4b18      	ldr	r3, [pc, #96]	; (31a0 <serial_baud+0x1a4>)
    3140:	f8d3 21ac 	ldr.w	r2, [r3, #428]	; 0x1ac
    3144:	f422 3240 	bic.w	r2, r2, #196608	; 0x30000
    3148:	f8c3 21ac 	str.w	r2, [r3, #428]	; 0x1ac
    314c:	f8d3 21ac 	ldr.w	r2, [r3, #428]	; 0x1ac
    3150:	f442 3280 	orr.w	r2, r2, #65536	; 0x10000
    3154:	f8c3 21ac 	str.w	r2, [r3, #428]	; 0x1ac
    3158:	e75d      	b.n	3016 <serial_baud+0x1a>
    315a:	46bb      	mov	r11, r7
    315c:	4699      	mov	r9, r3
    315e:	9a02      	ldr	r2, [sp, #8]
    3160:	f8dd a000 	ldr.w	r10, [sp]
    3164:	9203      	str	r2, [sp, #12]
    3166:	3601      	adds	r6, #1
    3168:	b2f3      	uxtb	r3, r6
    316a:	42bb      	cmp	r3, r7
    316c:	4488      	add	r8, r1
    316e:	f4ff af70 	bcc.w	3052 <serial_baud+0x56>
    3172:	2d0f      	cmp	r5, #15
    3174:	d09c      	beq.n	30b0 <serial_baud+0xb4>
    3176:	9b01      	ldr	r3, [sp, #4]
    3178:	3501      	adds	r5, #1
    317a:	440b      	add	r3, r1
    317c:	44e6      	add	lr, r12
    317e:	9301      	str	r3, [sp, #4]
    3180:	e75d      	b.n	303e <serial_baud+0x42>
    3182:	2701      	movs	r7, #1
    3184:	9200      	str	r2, [sp, #0]
    3186:	e797      	b.n	30b8 <serial_baud+0xbc>
    3188:	2e00      	cmp	r6, #0
    318a:	bf0c      	ite	eq
    318c:	2301      	moveq	r3, #1
    318e:	2302      	movne	r3, #2
    3190:	e776      	b.n	3080 <serial_baud+0x84>
    3192:	bf00      	nop
    3194:	40010000 	.word	0x40010000
    3198:	10000104 	.word	0x10000104
    319c:	40098000 	.word	0x40098000
    31a0:	400fc000 	.word	0x400fc000

000031a4 <serial_irq_handler>:
    31a4:	4b03      	ldr	r3, [pc, #12]	; (31b4 <serial_irq_handler+0x10>)
    31a6:	6019      	str	r1, [r3, #0]
    31a8:	2338      	movs	r3, #56	; 0x38
    31aa:	6841      	ldr	r1, [r0, #4]
    31ac:	434b      	muls	r3, r1
    31ae:	4902      	ldr	r1, [pc, #8]	; (31b8 <serial_irq_handler+0x14>)
    31b0:	50ca      	str	r2, [r1, r3]
    31b2:	4770      	bx	lr
    31b4:	10001930 	.word	0x10001930
    31b8:	10001938 	.word	0x10001938

000031bc <serial_getc>:
    31bc:	b510      	push	{r4, lr}
    31be:	6802      	ldr	r2, [r0, #0]
    31c0:	7d13      	ldrb	r3, [r2, #20]
    31c2:	07db      	lsls	r3, r3, #31
    31c4:	d5fc      	bpl.n	31c0 <serial_getc+0x4>
    31c6:	2438      	movs	r4, #56	; 0x38
    31c8:	6843      	ldr	r3, [r0, #4]
    31ca:	4808      	ldr	r0, [pc, #32]	; (31ec <serial_getc+0x30>)
    31cc:	7811      	ldrb	r1, [r2, #0]
    31ce:	fb04 0303 	mla	r3, r4, r3, r0
    31d2:	6858      	ldr	r0, [r3, #4]
    31d4:	b2c9      	uxtb	r1, r1
    31d6:	3001      	adds	r0, #1
    31d8:	d006      	beq.n	31e8 <serial_getc+0x2c>
    31da:	6958      	ldr	r0, [r3, #20]
    31dc:	689b      	ldr	r3, [r3, #8]
    31de:	6003      	str	r3, [r0, #0]
    31e0:	6853      	ldr	r3, [r2, #4]
    31e2:	f043 0301 	orr.w	r3, r3, #1
    31e6:	6053      	str	r3, [r2, #4]
    31e8:	4608      	mov	r0, r1
    31ea:	bd10      	pop	{r4, pc}
    31ec:	10001938 	.word	0x10001938

000031f0 <serial_writable>:
    31f0:	2138      	movs	r1, #56	; 0x38
    31f2:	4a11      	ldr	r2, [pc, #68]	; (3238 <serial_writable+0x48>)
    31f4:	6843      	ldr	r3, [r0, #4]
    31f6:	fb01 2303 	mla	r3, r1, r3, r2
    31fa:	69da      	ldr	r2, [r3, #28]
    31fc:	3201      	adds	r2, #1
    31fe:	d009      	beq.n	3214 <serial_writable+0x24>
    3200:	6b1a      	ldr	r2, [r3, #48]	; 0x30
    3202:	6a1b      	ldr	r3, [r3, #32]
    3204:	6812      	ldr	r2, [r2, #0]
    3206:	421a      	tst	r2, r3
    3208:	d114      	bne.n	3234 <serial_writable+0x44>
    320a:	6803      	ldr	r3, [r0, #0]
    320c:	7d18      	ldrb	r0, [r3, #20]
    320e:	f3c0 1080 	ubfx	r0, r0, #6, #1
    3212:	4770      	bx	lr
    3214:	6802      	ldr	r2, [r0, #0]
    3216:	7d12      	ldrb	r2, [r2, #20]
    3218:	0692      	lsls	r2, r2, #26
    321a:	d504      	bpl.n	3226 <serial_writable+0x36>
    321c:	2200      	movs	r2, #0
    321e:	2001      	movs	r0, #1
    3220:	f883 2034 	strb.w	r2, [r3, #52]	; 0x34
    3224:	4770      	bx	lr
    3226:	f893 0034 	ldrb.w	r0, [r3, #52]	; 0x34
    322a:	280f      	cmp	r0, #15
    322c:	bf8c      	ite	hi
    322e:	2000      	movhi	r0, #0
    3230:	2001      	movls	r0, #1
    3232:	4770      	bx	lr
    3234:	2000      	movs	r0, #0
    3236:	4770      	bx	lr
    3238:	10001938 	.word	0x10001938

0000323c <serial_putc>:
    323c:	b538      	push	{r3, r4, r5, lr}
    323e:	4604      	mov	r4, r0
    3240:	460d      	mov	r5, r1
    3242:	4620      	mov	r0, r4
    3244:	f7ff ffd4 	bl	31f0 <serial_writable>
    3248:	2800      	cmp	r0, #0
    324a:	d0fa      	beq.n	3242 <serial_putc+0x6>
    324c:	2138      	movs	r1, #56	; 0x38
    324e:	6823      	ldr	r3, [r4, #0]
    3250:	b2ed      	uxtb	r5, r5
    3252:	701d      	strb	r5, [r3, #0]
    3254:	6863      	ldr	r3, [r4, #4]
    3256:	4a04      	ldr	r2, [pc, #16]	; (3268 <serial_putc+0x2c>)
    3258:	fb01 2303 	mla	r3, r1, r3, r2
    325c:	f893 2034 	ldrb.w	r2, [r3, #52]	; 0x34
    3260:	3201      	adds	r2, #1
    3262:	f883 2034 	strb.w	r2, [r3, #52]	; 0x34
    3266:	bd38      	pop	{r3, r4, r5, pc}
    3268:	10001938 	.word	0x10001938

0000326c <serial_set_flow_control>:
    326c:	e92d 4ff8 	stmdb	sp!, {r3, r4, r5, r6, r7, r8, r9, r10, r11, lr}
    3270:	469a      	mov	r10, r3
    3272:	4c3c      	ldr	r4, [pc, #240]	; (3364 <serial_set_flow_control+0xf8>)
    3274:	6803      	ldr	r3, [r0, #0]
    3276:	4605      	mov	r5, r0
    3278:	42a3      	cmp	r3, r4
    327a:	bf18      	it	ne
    327c:	2400      	movne	r4, #0
    327e:	4689      	mov	r9, r1
    3280:	4690      	mov	r8, r2
    3282:	6847      	ldr	r7, [r0, #4]
    3284:	b11c      	cbz	r4, 328e <serial_set_flow_control+0x22>
    3286:	7c23      	ldrb	r3, [r4, #16]
    3288:	f003 033f 	and.w	r3, r3, #63	; 0x3f
    328c:	7423      	strb	r3, [r4, #16]
    328e:	2338      	movs	r3, #56	; 0x38
    3290:	f04f 32ff 	mov.w	r2, #4294967295	; 0xffffffff
    3294:	4e34      	ldr	r6, [pc, #208]	; (3368 <serial_set_flow_control+0xfc>)
    3296:	4628      	mov	r0, r5
    3298:	fb03 6307 	mla	r3, r3, r7, r6
    329c:	61da      	str	r2, [r3, #28]
    329e:	605a      	str	r2, [r3, #4]
    32a0:	2200      	movs	r2, #0
    32a2:	f883 2035 	strb.w	r2, [r3, #53]	; 0x35
    32a6:	4611      	mov	r1, r2
    32a8:	f7ff fe42 	bl	2f30 <serial_irq_set_internal>
    32ac:	f1b9 0f00 	cmp.w	r9, #0
    32b0:	d055      	beq.n	335e <serial_set_flow_control+0xf2>
    32b2:	492e      	ldr	r1, [pc, #184]	; (336c <serial_set_flow_control+0x100>)
    32b4:	4640      	mov	r0, r8
    32b6:	f7fd fed3 	bl	1060 <pinmap_find_peripheral>
    32ba:	492d      	ldr	r1, [pc, #180]	; (3370 <serial_set_flow_control+0x104>)
    32bc:	4683      	mov	r11, r0
    32be:	4650      	mov	r0, r10
    32c0:	f7fd fece 	bl	1060 <pinmap_find_peripheral>
    32c4:	f1a9 0302 	sub.w	r3, r9, #2
    32c8:	2b01      	cmp	r3, #1
    32ca:	d81b      	bhi.n	3304 <serial_set_flow_control+0x98>
    32cc:	f1ba 3fff 	cmp.w	r10, #4294967295	; 0xffffffff
    32d0:	d00b      	beq.n	32ea <serial_set_flow_control+0x7e>
    32d2:	4b24      	ldr	r3, [pc, #144]	; (3364 <serial_set_flow_control+0xf8>)
    32d4:	4298      	cmp	r0, r3
    32d6:	d10d      	bne.n	32f4 <serial_set_flow_control+0x88>
    32d8:	b164      	cbz	r4, 32f4 <serial_set_flow_control+0x88>
    32da:	7c23      	ldrb	r3, [r4, #16]
    32dc:	4924      	ldr	r1, [pc, #144]	; (3370 <serial_set_flow_control+0x104>)
    32de:	f043 0380 	orr.w	r3, r3, #128	; 0x80
    32e2:	7423      	strb	r3, [r4, #16]
    32e4:	4650      	mov	r0, r10
    32e6:	f7fd fe8d 	bl	1004 <pinmap_pinout>
    32ea:	f1b9 0f03 	cmp.w	r9, #3
    32ee:	d00c      	beq.n	330a <serial_set_flow_control+0x9e>
    32f0:	e8bd 8ff8 	ldmia.w	sp!, {r3, r4, r5, r6, r7, r8, r9, r10, r11, pc}
    32f4:	2038      	movs	r0, #56	; 0x38
    32f6:	fb00 6007 	mla	r0, r0, r7, r6
    32fa:	4651      	mov	r1, r10
    32fc:	301c      	adds	r0, #28
    32fe:	f7fd fdf0 	bl	ee2 <gpio_init_in>
    3302:	e7f2      	b.n	32ea <serial_set_flow_control+0x7e>
    3304:	f1b9 0f01 	cmp.w	r9, #1
    3308:	d129      	bne.n	335e <serial_set_flow_control+0xf2>
    330a:	f1b8 3fff 	cmp.w	r8, #4294967295	; 0xffffffff
    330e:	d101      	bne.n	3314 <serial_set_flow_control+0xa8>
    3310:	e8bd 8ff8 	ldmia.w	sp!, {r3, r4, r5, r6, r7, r8, r9, r10, r11, pc}
    3314:	2207      	movs	r2, #7
    3316:	682b      	ldr	r3, [r5, #0]
    3318:	721a      	strb	r2, [r3, #8]
    331a:	4b12      	ldr	r3, [pc, #72]	; (3364 <serial_set_flow_control+0xf8>)
    331c:	459b      	cmp	r11, r3
    331e:	d10a      	bne.n	3336 <serial_set_flow_control+0xca>
    3320:	b14c      	cbz	r4, 3336 <serial_set_flow_control+0xca>
    3322:	7c23      	ldrb	r3, [r4, #16]
    3324:	4640      	mov	r0, r8
    3326:	f043 0340 	orr.w	r3, r3, #64	; 0x40
    332a:	7423      	strb	r3, [r4, #16]
    332c:	490f      	ldr	r1, [pc, #60]	; (336c <serial_set_flow_control+0x100>)
    332e:	e8bd 4ff8 	ldmia.w	sp!, {r3, r4, r5, r6, r7, r8, r9, r10, r11, lr}
    3332:	f7fd be67 	b.w	1004 <pinmap_pinout>
    3336:	2438      	movs	r4, #56	; 0x38
    3338:	fb04 6007 	mla	r0, r4, r7, r6
    333c:	4641      	mov	r1, r8
    333e:	2200      	movs	r2, #0
    3340:	3004      	adds	r0, #4
    3342:	f7fd fdd1 	bl	ee8 <gpio_init_out_ex>
    3346:	2201      	movs	r2, #1
    3348:	686b      	ldr	r3, [r5, #4]
    334a:	4628      	mov	r0, r5
    334c:	fb04 6603 	mla	r6, r4, r3, r6
    3350:	f886 2035 	strb.w	r2, [r6, #53]	; 0x35
    3354:	2100      	movs	r1, #0
    3356:	e8bd 4ff8 	ldmia.w	sp!, {r3, r4, r5, r6, r7, r8, r9, r10, r11, lr}
    335a:	f7ff bde9 	b.w	2f30 <serial_irq_set_internal>
    335e:	e8bd 8ff8 	ldmia.w	sp!, {r3, r4, r5, r6, r7, r8, r9, r10, r11, pc}
    3362:	bf00      	nop
    3364:	40010000 	.word	0x40010000
    3368:	10001938 	.word	0x10001938
    336c:	0000734c 	.word	0x0000734c
    3370:	00007328 	.word	0x00007328

00003374 <serial_init>:
    3374:	e92d 41f0 	stmdb	sp!, {r4, r5, r6, r7, r8, lr}
    3378:	460f      	mov	r7, r1
    337a:	4605      	mov	r5, r0
    337c:	4946      	ldr	r1, [pc, #280]	; (3498 <serial_init+0x124>)
    337e:	4638      	mov	r0, r7
    3380:	4616      	mov	r6, r2
    3382:	f7fd fe79 	bl	1078 <pinmap_peripheral>
    3386:	4945      	ldr	r1, [pc, #276]	; (349c <serial_init+0x128>)
    3388:	4604      	mov	r4, r0
    338a:	4630      	mov	r0, r6
    338c:	f7fd fe74 	bl	1078 <pinmap_peripheral>
    3390:	4601      	mov	r1, r0
    3392:	4620      	mov	r0, r4
    3394:	f7fd fe52 	bl	103c <pinmap_merge>
    3398:	4b41      	ldr	r3, [pc, #260]	; (34a0 <serial_init+0x12c>)
    339a:	4604      	mov	r4, r0
    339c:	4298      	cmp	r0, r3
    339e:	6028      	str	r0, [r5, #0]
    33a0:	d05d      	beq.n	345e <serial_init+0xea>
    33a2:	d847      	bhi.n	3434 <serial_init+0xc0>
    33a4:	f5a3 4380 	sub.w	r3, r3, #16384	; 0x4000
    33a8:	4298      	cmp	r0, r3
    33aa:	d050      	beq.n	344e <serial_init+0xda>
    33ac:	2301      	movs	r3, #1
    33ae:	f04f 0800 	mov.w	r8, #0
    33b2:	7223      	strb	r3, [r4, #8]
    33b4:	f44f 5116 	mov.w	r1, #9600	; 0x2580
    33b8:	4628      	mov	r0, r5
    33ba:	f8c4 8004 	str.w	r8, [r4, #4]
    33be:	f7ff fe1d 	bl	2ffc <serial_baud>
    33c2:	2203      	movs	r2, #3
    33c4:	682b      	ldr	r3, [r5, #0]
    33c6:	4934      	ldr	r1, [pc, #208]	; (3498 <serial_init+0x124>)
    33c8:	731a      	strb	r2, [r3, #12]
    33ca:	4638      	mov	r0, r7
    33cc:	f7fd fe1a 	bl	1004 <pinmap_pinout>
    33d0:	4932      	ldr	r1, [pc, #200]	; (349c <serial_init+0x128>)
    33d2:	4630      	mov	r0, r6
    33d4:	f7fd fe16 	bl	1004 <pinmap_pinout>
    33d8:	1c7a      	adds	r2, r7, #1
    33da:	d003      	beq.n	33e4 <serial_init+0x70>
    33dc:	4641      	mov	r1, r8
    33de:	4638      	mov	r0, r7
    33e0:	f7ff fd1f 	bl	2e22 <pin_mode>
    33e4:	1c73      	adds	r3, r6, #1
    33e6:	d003      	beq.n	33f0 <serial_init+0x7c>
    33e8:	2100      	movs	r1, #0
    33ea:	4630      	mov	r0, r6
    33ec:	f7ff fd19 	bl	2e22 <pin_mode>
    33f0:	4b2b      	ldr	r3, [pc, #172]	; (34a0 <serial_init+0x12c>)
    33f2:	429c      	cmp	r4, r3
    33f4:	d04b      	beq.n	348e <serial_init+0x11a>
    33f6:	d83e      	bhi.n	3476 <serial_init+0x102>
    33f8:	f5a3 4380 	sub.w	r3, r3, #16384	; 0x4000
    33fc:	429c      	cmp	r4, r3
    33fe:	d043      	beq.n	3488 <serial_init+0x114>
    3400:	2138      	movs	r1, #56	; 0x38
    3402:	686a      	ldr	r2, [r5, #4]
    3404:	4b27      	ldr	r3, [pc, #156]	; (34a4 <serial_init+0x130>)
    3406:	4628      	mov	r0, r5
    3408:	fb01 3202 	mla	r2, r1, r2, r3
    340c:	f04f 33ff 	mov.w	r3, #4294967295	; 0xffffffff
    3410:	2100      	movs	r1, #0
    3412:	6053      	str	r3, [r2, #4]
    3414:	61d3      	str	r3, [r2, #28]
    3416:	461a      	mov	r2, r3
    3418:	f7ff ff28 	bl	326c <serial_set_flow_control>
    341c:	4b22      	ldr	r3, [pc, #136]	; (34a8 <serial_init+0x134>)
    341e:	429c      	cmp	r4, r3
    3420:	d106      	bne.n	3430 <serial_init+0xbc>
    3422:	2201      	movs	r2, #1
    3424:	4b21      	ldr	r3, [pc, #132]	; (34ac <serial_init+0x138>)
    3426:	6869      	ldr	r1, [r5, #4]
    3428:	601a      	str	r2, [r3, #0]
    342a:	6828      	ldr	r0, [r5, #0]
    342c:	4b20      	ldr	r3, [pc, #128]	; (34b0 <serial_init+0x13c>)
    342e:	c303      	stmia	r3!, {r0, r1}
    3430:	e8bd 81f0 	ldmia.w	sp!, {r4, r5, r6, r7, r8, pc}
    3434:	4b1f      	ldr	r3, [pc, #124]	; (34b4 <serial_init+0x140>)
    3436:	4298      	cmp	r0, r3
    3438:	d017      	beq.n	346a <serial_init+0xf6>
    343a:	f503 4380 	add.w	r3, r3, #16384	; 0x4000
    343e:	4298      	cmp	r0, r3
    3440:	d1b4      	bne.n	33ac <serial_init+0x38>
    3442:	4a1d      	ldr	r2, [pc, #116]	; (34b8 <serial_init+0x144>)
    3444:	f8d2 30c4 	ldr.w	r3, [r2, #196]	; 0xc4
    3448:	f043 7300 	orr.w	r3, r3, #33554432	; 0x2000000
    344c:	e004      	b.n	3458 <serial_init+0xe4>
    344e:	4a1a      	ldr	r2, [pc, #104]	; (34b8 <serial_init+0x144>)
    3450:	f8d2 30c4 	ldr.w	r3, [r2, #196]	; 0xc4
    3454:	f043 0308 	orr.w	r3, r3, #8
    3458:	f8c2 30c4 	str.w	r3, [r2, #196]	; 0xc4
    345c:	e7a6      	b.n	33ac <serial_init+0x38>
    345e:	4a16      	ldr	r2, [pc, #88]	; (34b8 <serial_init+0x144>)
    3460:	f8d2 30c4 	ldr.w	r3, [r2, #196]	; 0xc4
    3464:	f043 0310 	orr.w	r3, r3, #16
    3468:	e7f6      	b.n	3458 <serial_init+0xe4>
    346a:	4a13      	ldr	r2, [pc, #76]	; (34b8 <serial_init+0x144>)
    346c:	f8d2 30c4 	ldr.w	r3, [r2, #196]	; 0xc4
    3470:	f043 7380 	orr.w	r3, r3, #16777216	; 0x1000000
    3474:	e7f0      	b.n	3458 <serial_init+0xe4>
    3476:	4b0f      	ldr	r3, [pc, #60]	; (34b4 <serial_init+0x140>)
    3478:	429c      	cmp	r4, r3
    347a:	d00a      	beq.n	3492 <serial_init+0x11e>
    347c:	f503 4380 	add.w	r3, r3, #16384	; 0x4000
    3480:	429c      	cmp	r4, r3
    3482:	d1bd      	bne.n	3400 <serial_init+0x8c>
    3484:	2303      	movs	r3, #3
    3486:	e000      	b.n	348a <serial_init+0x116>
    3488:	2300      	movs	r3, #0
    348a:	606b      	str	r3, [r5, #4]
    348c:	e7b8      	b.n	3400 <serial_init+0x8c>
    348e:	2301      	movs	r3, #1
    3490:	e7fb      	b.n	348a <serial_init+0x116>
    3492:	2302      	movs	r3, #2
    3494:	e7f9      	b.n	348a <serial_init+0x116>
    3496:	bf00      	nop
    3498:	000073dc 	.word	0x000073dc
    349c:	00007370 	.word	0x00007370
    34a0:	40010000 	.word	0x40010000
    34a4:	10001938 	.word	0x10001938
    34a8:	4000c000 	.word	0x4000c000
    34ac:	10001934 	.word	0x10001934
    34b0:	100025e8 	.word	0x100025e8
    34b4:	40098000 	.word	0x40098000
    34b8:	400fc000 	.word	0x400fc000

000034bc <__NVIC_SetVector>:
    34bc:	b530      	push	{r4, r5, lr}
    34be:	4c0c      	ldr	r4, [pc, #48]	; (34f0 <__NVIC_SetVector+0x34>)
    34c0:	68a2      	ldr	r2, [r4, #8]
    34c2:	68a4      	ldr	r4, [r4, #8]
    34c4:	4613      	mov	r3, r2
    34c6:	f1b4 5f80 	cmp.w	r4, #268435456	; 0x10000000
    34ca:	d20c      	bcs.n	34e6 <__NVIC_SetVector+0x2a>
    34cc:	1f13      	subs	r3, r2, #4
    34ce:	4c09      	ldr	r4, [pc, #36]	; (34f4 <__NVIC_SetVector+0x38>)
    34d0:	4a09      	ldr	r2, [pc, #36]	; (34f8 <__NVIC_SetVector+0x3c>)
    34d2:	f853 5f04 	ldr.w	r5, [r3, #4]!
    34d6:	f842 5f04 	str.w	r5, [r2, #4]!
    34da:	42a2      	cmp	r2, r4
    34dc:	d1f9      	bne.n	34d2 <__NVIC_SetVector+0x16>
    34de:	f04f 5380 	mov.w	r3, #268435456	; 0x10000000
    34e2:	4a03      	ldr	r2, [pc, #12]	; (34f0 <__NVIC_SetVector+0x34>)
    34e4:	6093      	str	r3, [r2, #8]
    34e6:	3010      	adds	r0, #16
    34e8:	f843 1020 	str.w	r1, [r3, r0, lsl #2]
    34ec:	bd30      	pop	{r4, r5, pc}
    34ee:	bf00      	nop
    34f0:	e000ed00 	.word	0xe000ed00
    34f4:	100000c0 	.word	0x100000c0
    34f8:	0ffffffc 	.word	0x0ffffffc

000034fc <SystemInit>:
    34fc:	2220      	movs	r2, #32
    34fe:	4b26      	ldr	r3, [pc, #152]	; (3598 <SystemInit+0x9c>)
    3500:	f8c3 21a0 	str.w	r2, [r3, #416]	; 0x1a0
    3504:	f8d3 21a0 	ldr.w	r2, [r3, #416]	; 0x1a0
    3508:	0692      	lsls	r2, r2, #26
    350a:	d503      	bpl.n	3514 <SystemInit+0x18>
    350c:	f8d3 21a0 	ldr.w	r2, [r3, #416]	; 0x1a0
    3510:	0650      	lsls	r0, r2, #25
    3512:	d5fb      	bpl.n	350c <SystemInit+0x10>
    3514:	2202      	movs	r2, #2
    3516:	f8c3 2104 	str.w	r2, [r3, #260]	; 0x104
    351a:	2200      	movs	r2, #0
    351c:	2001      	movs	r0, #1
    351e:	f8c3 21a8 	str.w	r2, [r3, #424]	; 0x1a8
    3522:	f8c3 21ac 	str.w	r2, [r3, #428]	; 0x1ac
    3526:	220b      	movs	r2, #11
    3528:	f8c3 010c 	str.w	r0, [r3, #268]	; 0x10c
    352c:	21aa      	movs	r1, #170	; 0xaa
    352e:	f8c3 2084 	str.w	r2, [r3, #132]	; 0x84
    3532:	2255      	movs	r2, #85	; 0x55
    3534:	f8c3 108c 	str.w	r1, [r3, #140]	; 0x8c
    3538:	f8c3 208c 	str.w	r2, [r3, #140]	; 0x8c
    353c:	f8c3 0080 	str.w	r0, [r3, #128]	; 0x80
    3540:	f8c3 108c 	str.w	r1, [r3, #140]	; 0x8c
    3544:	f8c3 208c 	str.w	r2, [r3, #140]	; 0x8c
    3548:	4b13      	ldr	r3, [pc, #76]	; (3598 <SystemInit+0x9c>)
    354a:	461a      	mov	r2, r3
    354c:	f8d3 1088 	ldr.w	r1, [r3, #136]	; 0x88
    3550:	0149      	lsls	r1, r1, #5
    3552:	d5fb      	bpl.n	354c <SystemInit+0x50>
    3554:	2103      	movs	r1, #3
    3556:	f8c3 1080 	str.w	r1, [r3, #128]	; 0x80
    355a:	21aa      	movs	r1, #170	; 0xaa
    355c:	f8c3 108c 	str.w	r1, [r3, #140]	; 0x8c
    3560:	2155      	movs	r1, #85	; 0x55
    3562:	f8c3 108c 	str.w	r1, [r3, #140]	; 0x8c
    3566:	f8d2 3088 	ldr.w	r3, [r2, #136]	; 0x88
    356a:	f013 7f40 	tst.w	r3, #50331648	; 0x3000000
    356e:	d0fa      	beq.n	3566 <SystemInit+0x6a>
    3570:	2305      	movs	r3, #5
    3572:	f8c2 3108 	str.w	r3, [r2, #264]	; 0x108
    3576:	4b09      	ldr	r3, [pc, #36]	; (359c <SystemInit+0xa0>)
    3578:	f8c2 30c4 	str.w	r3, [r2, #196]	; 0xc4
    357c:	2300      	movs	r3, #0
    357e:	f8c2 31c8 	str.w	r3, [r2, #456]	; 0x1c8
    3582:	6813      	ldr	r3, [r2, #0]
    3584:	f423 4370 	bic.w	r3, r3, #61440	; 0xf000
    3588:	f023 033a 	bic.w	r3, r3, #58	; 0x3a
    358c:	f443 5340 	orr.w	r3, r3, #12288	; 0x3000
    3590:	f043 033a 	orr.w	r3, r3, #58	; 0x3a
    3594:	6013      	str	r3, [r2, #0]
    3596:	4770      	bx	lr
    3598:	400fc000 	.word	0x400fc000
    359c:	042887de 	.word	0x042887de

000035a0 <mbed::FileLike::lseek(long, int)>:
    35a0:	6803      	ldr	r3, [r0, #0]
    35a2:	69db      	ldr	r3, [r3, #28]
    35a4:	4718      	bx	r3

000035a6 <mbed::FileLike::fsync()>:
    35a6:	6803      	ldr	r3, [r0, #0]
    35a8:	695b      	ldr	r3, [r3, #20]
    35aa:	4718      	bx	r3

000035ac <mbed::FileLike::flen()>:
    35ac:	6803      	ldr	r3, [r0, #0]
    35ae:	6a9b      	ldr	r3, [r3, #40]	; 0x28
    35b0:	4718      	bx	r3

000035b2 <mbed::Serial::_getc()>:
    35b2:	f000 baf8 	b.w	3ba6 <mbed::SerialBase::_base_getc()>

000035b6 <non-virtual thunk to mbed::Serial::_getc()>:
    35b6:	f1a0 0030 	sub.w	r0, r0, #48	; 0x30
    35ba:	f7ff bffa 	b.w	35b2 <mbed::Serial::_getc()>

000035be <mbed::Serial::_putc(int)>:
    35be:	f000 baf5 	b.w	3bac <mbed::SerialBase::_base_putc(int)>

000035c2 <non-virtual thunk to mbed::Serial::_putc(int)>:
    35c2:	f1a0 0030 	sub.w	r0, r0, #48	; 0x30
    35c6:	f7ff bffa 	b.w	35be <mbed::Serial::_putc(int)>

000035ca <mbed::Serial::lock()>:
    35ca:	f04f 31ff 	mov.w	r1, #4294967295	; 0xffffffff
    35ce:	3044      	adds	r0, #68	; 0x44
    35d0:	f000 be7a 	b.w	42c8 <rtos::Mutex::lock(unsigned long)>

000035d4 <non-virtual thunk to mbed::Serial::lock()>:
    35d4:	f1a0 0030 	sub.w	r0, r0, #48	; 0x30
    35d8:	f7ff bff7 	b.w	35ca <mbed::Serial::lock()>

000035dc <mbed::Serial::unlock()>:
    35dc:	3044      	adds	r0, #68	; 0x44
    35de:	f000 be76 	b.w	42ce <rtos::Mutex::unlock()>

000035e2 <non-virtual thunk to mbed::Serial::unlock()>:
    35e2:	f1a0 0030 	sub.w	r0, r0, #48	; 0x30
    35e6:	f7ff bff9 	b.w	35dc <mbed::Serial::unlock()>
	...

000035ec <mbed::Serial::Serial(PinName, PinName, char const*, int)>:
    35ec:	b538      	push	{r3, r4, r5, lr}
    35ee:	4604      	mov	r4, r0
    35f0:	461d      	mov	r5, r3
    35f2:	9b04      	ldr	r3, [sp, #16]
    35f4:	f000 fae2 	bl	3bbc <mbed::SerialBase::SerialBase(PinName, PinName, int)>
    35f8:	4629      	mov	r1, r5
    35fa:	f104 0030 	add.w	r0, r4, #48	; 0x30
    35fe:	f000 f9c7 	bl	3990 <mbed::Stream::Stream(char const*)>
    3602:	4b06      	ldr	r3, [pc, #24]	; (361c <mbed::Serial::Serial(PinName, PinName, char const*, int)+0x30>)
    3604:	f104 0044 	add.w	r0, r4, #68	; 0x44
    3608:	f103 0208 	add.w	r2, r3, #8
    360c:	3328      	adds	r3, #40	; 0x28
    360e:	6022      	str	r2, [r4, #0]
    3610:	6323      	str	r3, [r4, #48]	; 0x30
    3612:	f000 fe41 	bl	4298 <rtos::Mutex::Mutex()>
    3616:	4620      	mov	r0, r4
    3618:	bd38      	pop	{r3, r4, r5, pc}
    361a:	bf00      	nop
    361c:	00007448 	.word	0x00007448

00003620 <mbed::Ticker::handler()>:
    3620:	b510      	push	{r4, lr}
    3622:	4604      	mov	r4, r0
    3624:	6943      	ldr	r3, [r0, #20]
    3626:	6841      	ldr	r1, [r0, #4]
    3628:	4419      	add	r1, r3
    362a:	f000 fb1d 	bl	3c68 <mbed::TimerEvent::insert(unsigned long)>
    362e:	6a63      	ldr	r3, [r4, #36]	; 0x24
    3630:	f104 0018 	add.w	r0, r4, #24
    3634:	681b      	ldr	r3, [r3, #0]
    3636:	e8bd 4010 	ldmia.w	sp!, {r4, lr}
    363a:	4718      	bx	r3

0000363c <mbed::Ticker::setup(unsigned long)>:
    363c:	b538      	push	{r3, r4, r5, lr}
    363e:	4604      	mov	r4, r0
    3640:	460d      	mov	r5, r1
    3642:	f7fd fd41 	bl	10c8 <core_util_critical_section_enter>
    3646:	4620      	mov	r0, r4
    3648:	f000 fb14 	bl	3c74 <mbed::TimerEvent::remove()>
    364c:	6165      	str	r5, [r4, #20]
    364e:	6920      	ldr	r0, [r4, #16]
    3650:	f7fd fcd5 	bl	ffe <ticker_read>
    3654:	1829      	adds	r1, r5, r0
    3656:	4620      	mov	r0, r4
    3658:	f000 fb06 	bl	3c68 <mbed::TimerEvent::insert(unsigned long)>
    365c:	e8bd 4038 	ldmia.w	sp!, {r3, r4, r5, lr}
    3660:	f7fd bd48 	b.w	10f4 <core_util_critical_section_exit>

00003664 <mbed::Ticker::detach()>:
    3664:	b57f      	push	{r0, r1, r2, r3, r4, r5, r6, lr}
    3666:	4606      	mov	r6, r0
    3668:	466d      	mov	r5, sp
    366a:	f7fd fd2d 	bl	10c8 <core_util_critical_section_enter>
    366e:	4630      	mov	r0, r6
    3670:	f000 fb00 	bl	3c74 <mbed::TimerEvent::remove()>
    3674:	2300      	movs	r3, #0
    3676:	f106 0418 	add.w	r4, r6, #24
    367a:	42ac      	cmp	r4, r5
    367c:	9303      	str	r3, [sp, #12]
    367e:	d00b      	beq.n	3698 <mbed::Ticker::detach()+0x34>
    3680:	4620      	mov	r0, r4
    3682:	f7fc fec3 	bl	40c <mbed::Callback<void ()>::~Callback()>
    3686:	b13c      	cbz	r4, 3698 <mbed::Ticker::detach()+0x34>
    3688:	9b03      	ldr	r3, [sp, #12]
    368a:	b11b      	cbz	r3, 3694 <mbed::Ticker::detach()+0x30>
    368c:	685b      	ldr	r3, [r3, #4]
    368e:	4669      	mov	r1, sp
    3690:	4620      	mov	r0, r4
    3692:	4798      	blx	r3
    3694:	9b03      	ldr	r3, [sp, #12]
    3696:	6273      	str	r3, [r6, #36]	; 0x24
    3698:	4628      	mov	r0, r5
    369a:	f7fc feb7 	bl	40c <mbed::Callback<void ()>::~Callback()>
    369e:	f7fd fd29 	bl	10f4 <core_util_critical_section_exit>
    36a2:	b004      	add	sp, #16
    36a4:	bd70      	pop	{r4, r5, r6, pc}

000036a6 <mbed::Timer::start()>:
    36a6:	b510      	push	{r4, lr}
    36a8:	4604      	mov	r4, r0
    36aa:	f7fd fd0d 	bl	10c8 <core_util_critical_section_enter>
    36ae:	6823      	ldr	r3, [r4, #0]
    36b0:	b92b      	cbnz	r3, 36be <mbed::Timer::start()+0x18>
    36b2:	68e0      	ldr	r0, [r4, #12]
    36b4:	f7fd fca3 	bl	ffe <ticker_read>
    36b8:	2301      	movs	r3, #1
    36ba:	6060      	str	r0, [r4, #4]
    36bc:	6023      	str	r3, [r4, #0]
    36be:	e8bd 4010 	ldmia.w	sp!, {r4, lr}
    36c2:	f7fd bd17 	b.w	10f4 <core_util_critical_section_exit>

000036c6 <mbed::Timer::slicetime()>:
    36c6:	b538      	push	{r3, r4, r5, lr}
    36c8:	4605      	mov	r5, r0
    36ca:	f7fd fcfd 	bl	10c8 <core_util_critical_section_enter>
    36ce:	682c      	ldr	r4, [r5, #0]
    36d0:	b124      	cbz	r4, 36dc <mbed::Timer::slicetime()+0x16>
    36d2:	68e8      	ldr	r0, [r5, #12]
    36d4:	f7fd fc93 	bl	ffe <ticker_read>
    36d8:	686c      	ldr	r4, [r5, #4]
    36da:	1b04      	subs	r4, r0, r4
    36dc:	f7fd fd0a 	bl	10f4 <core_util_critical_section_exit>
    36e0:	4620      	mov	r0, r4
    36e2:	bd38      	pop	{r3, r4, r5, pc}

000036e4 <mbed::Timer::read_us()>:
    36e4:	b538      	push	{r3, r4, r5, lr}
    36e6:	4605      	mov	r5, r0
    36e8:	f7fd fcee 	bl	10c8 <core_util_critical_section_enter>
    36ec:	4628      	mov	r0, r5
    36ee:	68ac      	ldr	r4, [r5, #8]
    36f0:	f7ff ffe9 	bl	36c6 <mbed::Timer::slicetime()>
    36f4:	4404      	add	r4, r0
    36f6:	f7fd fcfd 	bl	10f4 <core_util_critical_section_exit>
    36fa:	4620      	mov	r0, r4
    36fc:	bd38      	pop	{r3, r4, r5, pc}
	...

00003700 <mbed::Timer::read()>:
    3700:	b508      	push	{r3, lr}
    3702:	f7ff ffef 	bl	36e4 <mbed::Timer::read_us()>
    3706:	f001 fbff 	bl	4f08 <__aeabi_i2f>
    370a:	4902      	ldr	r1, [pc, #8]	; (3714 <mbed::Timer::read()+0x14>)
    370c:	f001 fd04 	bl	5118 <__aeabi_fdiv>
    3710:	bd08      	pop	{r3, pc}
    3712:	bf00      	nop
    3714:	49742400 	.word	0x49742400

00003718 <mbed::Timer::reset()>:
    3718:	b510      	push	{r4, lr}
    371a:	4604      	mov	r4, r0
    371c:	f7fd fcd4 	bl	10c8 <core_util_critical_section_enter>
    3720:	68e0      	ldr	r0, [r4, #12]
    3722:	f7fd fc6c 	bl	ffe <ticker_read>
    3726:	2300      	movs	r3, #0
    3728:	6060      	str	r0, [r4, #4]
    372a:	60a3      	str	r3, [r4, #8]
    372c:	e8bd 4010 	ldmia.w	sp!, {r4, lr}
    3730:	f7fd bce0 	b.w	10f4 <core_util_critical_section_exit>

00003734 <mbed::Timer::Timer()>:
    3734:	2300      	movs	r3, #0
    3736:	b510      	push	{r4, lr}
    3738:	6003      	str	r3, [r0, #0]
    373a:	6043      	str	r3, [r0, #4]
    373c:	6083      	str	r3, [r0, #8]
    373e:	4604      	mov	r4, r0
    3740:	f7fd fbe6 	bl	f10 <get_us_ticker_data>
    3744:	60e0      	str	r0, [r4, #12]
    3746:	4620      	mov	r0, r4
    3748:	f7ff ffe6 	bl	3718 <mbed::Timer::reset()>
    374c:	4620      	mov	r0, r4
    374e:	bd10      	pop	{r4, pc}

00003750 <mbed::FileBase::getPathType()>:
    3750:	7b00      	ldrb	r0, [r0, #12]
    3752:	4770      	bx	lr

00003754 <SingletonPtr<rtos::Mutex>::get()>:
    3754:	6803      	ldr	r3, [r0, #0]
    3756:	b570      	push	{r4, r5, r6, lr}
    3758:	4604      	mov	r4, r0
    375a:	b983      	cbnz	r3, 377e <SingletonPtr<rtos::Mutex>::get()+0x2a>
    375c:	4d09      	ldr	r5, [pc, #36]	; (3784 <SingletonPtr<rtos::Mutex>::get()+0x30>)
    375e:	f04f 31ff 	mov.w	r1, #4294967295	; 0xffffffff
    3762:	6828      	ldr	r0, [r5, #0]
    3764:	f7fe fbfe 	bl	1f64 <osMutexWait>
    3768:	6823      	ldr	r3, [r4, #0]
    376a:	b92b      	cbnz	r3, 3778 <SingletonPtr<rtos::Mutex>::get()+0x24>
    376c:	1d26      	adds	r6, r4, #4
    376e:	d002      	beq.n	3776 <SingletonPtr<rtos::Mutex>::get()+0x22>
    3770:	4630      	mov	r0, r6
    3772:	f000 fd91 	bl	4298 <rtos::Mutex::Mutex()>
    3776:	6026      	str	r6, [r4, #0]
    3778:	6828      	ldr	r0, [r5, #0]
    377a:	f7fe fc1b 	bl	1fb4 <osMutexRelease>
    377e:	6820      	ldr	r0, [r4, #0]
    3780:	bd70      	pop	{r4, r5, r6, pc}
    3782:	bf00      	nop
    3784:	10001e5c 	.word	0x10001e5c

00003788 <mbed::FileBase::FileBase(char const*, mbed::PathType)>:
    3788:	b538      	push	{r3, r4, r5, lr}
    378a:	4b0e      	ldr	r3, [pc, #56]	; (37c4 <mbed::FileBase::FileBase(char const*, mbed::PathType)+0x3c>)
    378c:	4604      	mov	r4, r0
    378e:	6003      	str	r3, [r0, #0]
    3790:	2300      	movs	r3, #0
    3792:	460d      	mov	r5, r1
    3794:	6043      	str	r3, [r0, #4]
    3796:	60a1      	str	r1, [r4, #8]
    3798:	7302      	strb	r2, [r0, #12]
    379a:	480b      	ldr	r0, [pc, #44]	; (37c8 <mbed::FileBase::FileBase(char const*, mbed::PathType)+0x40>)
    379c:	f7ff ffda 	bl	3754 <SingletonPtr<rtos::Mutex>::get()>
    37a0:	f04f 31ff 	mov.w	r1, #4294967295	; 0xffffffff
    37a4:	f000 fd90 	bl	42c8 <rtos::Mutex::lock(unsigned long)>
    37a8:	b155      	cbz	r5, 37c0 <mbed::FileBase::FileBase(char const*, mbed::PathType)+0x38>
    37aa:	4b08      	ldr	r3, [pc, #32]	; (37cc <mbed::FileBase::FileBase(char const*, mbed::PathType)+0x44>)
    37ac:	681a      	ldr	r2, [r3, #0]
    37ae:	601c      	str	r4, [r3, #0]
    37b0:	6062      	str	r2, [r4, #4]
    37b2:	4805      	ldr	r0, [pc, #20]	; (37c8 <mbed::FileBase::FileBase(char const*, mbed::PathType)+0x40>)
    37b4:	f7ff ffce 	bl	3754 <SingletonPtr<rtos::Mutex>::get()>
    37b8:	f000 fd89 	bl	42ce <rtos::Mutex::unlock()>
    37bc:	4620      	mov	r0, r4
    37be:	bd38      	pop	{r3, r4, r5, pc}
    37c0:	6065      	str	r5, [r4, #4]
    37c2:	e7f6      	b.n	37b2 <mbed::FileBase::FileBase(char const*, mbed::PathType)+0x2a>
    37c4:	000074d4 	.word	0x000074d4
    37c8:	10001a1c 	.word	0x10001a1c
    37cc:	10001a18 	.word	0x10001a18

000037d0 <mbed::FileBase::~FileBase()>:
    37d0:	b510      	push	{r4, lr}
    37d2:	4604      	mov	r4, r0
    37d4:	4b11      	ldr	r3, [pc, #68]	; (381c <mbed::FileBase::~FileBase()+0x4c>)
    37d6:	6003      	str	r3, [r0, #0]
    37d8:	4811      	ldr	r0, [pc, #68]	; (3820 <mbed::FileBase::~FileBase()+0x50>)
    37da:	f7ff ffbb 	bl	3754 <SingletonPtr<rtos::Mutex>::get()>
    37de:	f04f 31ff 	mov.w	r1, #4294967295	; 0xffffffff
    37e2:	f000 fd71 	bl	42c8 <rtos::Mutex::lock(unsigned long)>
    37e6:	68a3      	ldr	r3, [r4, #8]
    37e8:	b12b      	cbz	r3, 37f6 <mbed::FileBase::~FileBase()+0x26>
    37ea:	4a0e      	ldr	r2, [pc, #56]	; (3824 <mbed::FileBase::~FileBase()+0x54>)
    37ec:	6813      	ldr	r3, [r2, #0]
    37ee:	429c      	cmp	r4, r3
    37f0:	d10e      	bne.n	3810 <mbed::FileBase::~FileBase()+0x40>
    37f2:	6863      	ldr	r3, [r4, #4]
    37f4:	6013      	str	r3, [r2, #0]
    37f6:	480a      	ldr	r0, [pc, #40]	; (3820 <mbed::FileBase::~FileBase()+0x50>)
    37f8:	f7ff ffac 	bl	3754 <SingletonPtr<rtos::Mutex>::get()>
    37fc:	f000 fd67 	bl	42ce <rtos::Mutex::unlock()>
    3800:	7b23      	ldrb	r3, [r4, #12]
    3802:	b913      	cbnz	r3, 380a <mbed::FileBase::~FileBase()+0x3a>
    3804:	4620      	mov	r0, r4
    3806:	f000 fc63 	bl	40d0 <mbed::remove_filehandle(mbed::FileLike*)>
    380a:	4620      	mov	r0, r4
    380c:	bd10      	pop	{r4, pc}
    380e:	4613      	mov	r3, r2
    3810:	685a      	ldr	r2, [r3, #4]
    3812:	4294      	cmp	r4, r2
    3814:	d1fb      	bne.n	380e <mbed::FileBase::~FileBase()+0x3e>
    3816:	6862      	ldr	r2, [r4, #4]
    3818:	605a      	str	r2, [r3, #4]
    381a:	e7ec      	b.n	37f6 <mbed::FileBase::~FileBase()+0x26>
    381c:	000074d4 	.word	0x000074d4
    3820:	10001a1c 	.word	0x10001a1c
    3824:	10001a18 	.word	0x10001a18

00003828 <mbed::FileBase::~FileBase()>:
    3828:	b510      	push	{r4, lr}
    382a:	4604      	mov	r4, r0
    382c:	f7ff ffd0 	bl	37d0 <mbed::FileBase::~FileBase()>
    3830:	4620      	mov	r0, r4
    3832:	f000 fc4a 	bl	40ca <operator delete(void*)>
    3836:	4620      	mov	r0, r4
    3838:	bd10      	pop	{r4, pc}
	...

0000383c <mbed::FileBase::lookup(char const*, unsigned int)>:
    383c:	b5f8      	push	{r3, r4, r5, r6, r7, lr}
    383e:	4607      	mov	r7, r0
    3840:	4810      	ldr	r0, [pc, #64]	; (3884 <mbed::FileBase::lookup(char const*, unsigned int)+0x48>)
    3842:	460e      	mov	r6, r1
    3844:	f7ff ff86 	bl	3754 <SingletonPtr<rtos::Mutex>::get()>
    3848:	f04f 31ff 	mov.w	r1, #4294967295	; 0xffffffff
    384c:	f000 fd3c 	bl	42c8 <rtos::Mutex::lock(unsigned long)>
    3850:	4b0d      	ldr	r3, [pc, #52]	; (3888 <mbed::FileBase::lookup(char const*, unsigned int)+0x4c>)
    3852:	681c      	ldr	r4, [r3, #0]
    3854:	b164      	cbz	r4, 3870 <mbed::FileBase::lookup(char const*, unsigned int)+0x34>
    3856:	68a5      	ldr	r5, [r4, #8]
    3858:	b18d      	cbz	r5, 387e <mbed::FileBase::lookup(char const*, unsigned int)+0x42>
    385a:	4632      	mov	r2, r6
    385c:	4639      	mov	r1, r7
    385e:	4628      	mov	r0, r5
    3860:	f002 febf 	bl	65e2 <strncmp>
    3864:	b958      	cbnz	r0, 387e <mbed::FileBase::lookup(char const*, unsigned int)+0x42>
    3866:	4628      	mov	r0, r5
    3868:	f002 feb3 	bl	65d2 <strlen>
    386c:	4286      	cmp	r6, r0
    386e:	d106      	bne.n	387e <mbed::FileBase::lookup(char const*, unsigned int)+0x42>
    3870:	4804      	ldr	r0, [pc, #16]	; (3884 <mbed::FileBase::lookup(char const*, unsigned int)+0x48>)
    3872:	f7ff ff6f 	bl	3754 <SingletonPtr<rtos::Mutex>::get()>
    3876:	f000 fd2a 	bl	42ce <rtos::Mutex::unlock()>
    387a:	4620      	mov	r0, r4
    387c:	bdf8      	pop	{r3, r4, r5, r6, r7, pc}
    387e:	6864      	ldr	r4, [r4, #4]
    3880:	e7e8      	b.n	3854 <mbed::FileBase::lookup(char const*, unsigned int)+0x18>
    3882:	bf00      	nop
    3884:	10001a1c 	.word	0x10001a1c
    3888:	10001a18 	.word	0x10001a18

0000388c <mbed::FilePath::FilePath(char const*)>:
    388c:	2300      	movs	r3, #0
    388e:	b510      	push	{r4, lr}
    3890:	6003      	str	r3, [r0, #0]
    3892:	6043      	str	r3, [r0, #4]
    3894:	780a      	ldrb	r2, [r1, #0]
    3896:	4604      	mov	r4, r0
    3898:	2a2f      	cmp	r2, #47	; 0x2f
    389a:	d10d      	bne.n	38b8 <mbed::FilePath::FilePath(char const*)+0x2c>
    389c:	784a      	ldrb	r2, [r1, #1]
    389e:	b15a      	cbz	r2, 38b8 <mbed::FilePath::FilePath(char const*)+0x2c>
    38a0:	1c48      	adds	r0, r1, #1
    38a2:	4619      	mov	r1, r3
    38a4:	6020      	str	r0, [r4, #0]
    38a6:	6823      	ldr	r3, [r4, #0]
    38a8:	781a      	ldrb	r2, [r3, #0]
    38aa:	2a2f      	cmp	r2, #47	; 0x2f
    38ac:	d106      	bne.n	38bc <mbed::FilePath::FilePath(char const*)+0x30>
    38ae:	3301      	adds	r3, #1
    38b0:	6023      	str	r3, [r4, #0]
    38b2:	f7ff ffc3 	bl	383c <mbed::FileBase::lookup(char const*, unsigned int)>
    38b6:	6060      	str	r0, [r4, #4]
    38b8:	4620      	mov	r0, r4
    38ba:	bd10      	pop	{r4, pc}
    38bc:	2a00      	cmp	r2, #0
    38be:	d0f8      	beq.n	38b2 <mbed::FilePath::FilePath(char const*)+0x26>
    38c0:	3301      	adds	r3, #1
    38c2:	3101      	adds	r1, #1
    38c4:	6023      	str	r3, [r4, #0]
    38c6:	e7ee      	b.n	38a6 <mbed::FilePath::FilePath(char const*)+0x1a>

000038c8 <mbed::FilePath::fileName()>:
    38c8:	6800      	ldr	r0, [r0, #0]
    38ca:	4770      	bx	lr

000038cc <mbed::FilePath::isFileSystem()>:
    38cc:	6840      	ldr	r0, [r0, #4]
    38ce:	b508      	push	{r3, lr}
    38d0:	b120      	cbz	r0, 38dc <mbed::FilePath::isFileSystem()+0x10>
    38d2:	f7ff ff3d 	bl	3750 <mbed::FileBase::getPathType()>
    38d6:	1e43      	subs	r3, r0, #1
    38d8:	4258      	negs	r0, r3
    38da:	4158      	adcs	r0, r3
    38dc:	bd08      	pop	{r3, pc}

000038de <mbed::FilePath::fileSystem()>:
    38de:	b510      	push	{r4, lr}
    38e0:	4604      	mov	r4, r0
    38e2:	f7ff fff3 	bl	38cc <mbed::FilePath::isFileSystem()>
    38e6:	b100      	cbz	r0, 38ea <mbed::FilePath::fileSystem()+0xc>
    38e8:	6860      	ldr	r0, [r4, #4]
    38ea:	bd10      	pop	{r4, pc}

000038ec <mbed::FilePath::isFile()>:
